Microchip MPLAB XC8 Compiler V2.41

Linker command line:

\
  --edf=C:/Users/akihito/.mchp_packs/Microchip/PIC18F-Q_DFP/1.22.413/xc8\pic\dat\20230918224007_en.msgs \
  -pivt0x8=08h -cn -h+dist/default/production\MEZ180SD_Q43.X.production.sym \
  --cmf=dist/default/production\MEZ180SD_Q43.X.production.cmf -z -Q18F47Q43 \
  -oC:\Users\akihito\AppData\Local\Temp\xcAset0.\driver_tmp_3.o \
  --defsym=__MPLAB_BUILD=1 --fixupoverflow=error \
  -Mdist/default/production/MEZ180SD_Q43.X.production.map \
  --md=C:\Users\akihito\AppData\Local\Temp\xcAset0.\driver_tmp_0.dat -E1 \
  -ver=XC8 Compiler --acfsm=1493 -ACODE=00h-01FFFFh -ACONST=00h-01FFFFh \
  -ASMALLCONST=02600h-026FFhx474 \
  -AMEDIUMCONST=02600h-0FFFFh,012600h-01FFFFh -ACOMRAM=0501h-055Fh \
  -AABS1=0500h-024FFh -ABIGRAM=0501h-024FFh \
  -ARAM=0560h-05FFh,0600h-06FFhx31 -ABANK5=0560h-05FFh -ABANK6=0600h-06FFh \
  -ABANK7=0700h-07FFh -ABANK8=0800h-08FFh -ABANK9=0900h-09FFh \
  -ABANK10=0A00h-0AFFh -ABANK11=0B00h-0BFFh -ABANK12=0C00h-0CFFh \
  -ABANK13=0D00h-0DFFh -ABANK14=0E00h-0EFFh -ABANK15=0F00h-0FFFh \
  -ABANK16=01000h-010FFh -ABANK17=01100h-011FFh -ABANK18=01200h-012FFh \
  -ABANK19=01300h-013FFh -ABANK20=01400h-014FFh -ABANK21=01500h-015FFh \
  -ABANK22=01600h-016FFh -ABANK23=01700h-017FFh -ABANK24=01800h-018FFh \
  -ABANK25=01900h-019FFh -ABANK26=01A00h-01AFFh -ABANK27=01B00h-01BFFh \
  -ABANK28=01C00h-01CFFh -ABANK29=01D00h-01DFFh -ABANK30=01E00h-01EFFh \
  -ABANK31=01F00h-01FFFh -ABANK32=02000h-020FFh -ABANK33=02100h-021FFh \
  -ABANK34=02200h-022FFh -ABANK35=02300h-023FFh -ABANK36=02400h-024FFh \
  -ASFR=00h-0FFhx4,0400h-045Fh,0460h-04FFh,02500h-025FFh \
  -ABIGSFR=00h-04FFh,02500h-025FFh -ACONFIG=0300000h-0300011h \
  -AIDLOC=0200000h-020003Fh -AEEDATA=0380000h-03803FFh -peeprom_data=EEDATA \
  -preset_vec=00h -ppowerup=CODE,init -pramtop=02600h \
  -psmallconst=SMALLCONST -pmediumconst=MEDIUMCONST -pconst=CONST \
  -AFARRAM=00h-00h \
  -prdata=COMRAM,nvrram=COMRAM,nvbit=COMRAM,rbss=COMRAM,rbit=COMRAM \
  -pfarbss=FARRAM,fardata=FARRAM,nvFARRAM=FARRAM \
  -pintsave_regs=BIGRAM,bigbss=BIGRAM,bigdata=BIGRAM -pbss=RAM \
  -pidata=CODE,irdata=CODE,ibigdata=CODE,ifardata=CODE -prparam=COMRAM \
  C:\Users\akihito\AppData\Local\Temp\xcAset0.\driver_tmp_14.o \
  dist/default/production\MEZ180SD_Q43.X.production.o 

Object code version is 3.11

Machine type is 18F47Q43



                Name                               Link     Load   Length Selector   Space Scale
C:\Users\akihito\AppData\Local\Temp\xcAset0.\driver_tmp_14.o
                config                           300000   300000        A        0       4
                init                                102      102        4        4       0
                reset_vec                             0        0        4        0       0
dist/default/production\MEZ180SD_Q43.X.production.o
                config                           300000   300000        A        0       4
                mediumconst                        DD0E     DD0E     22F2     6E87       0
                ivt0x8                                8        8       FA        4       0
                text247                            4CB4     4CB4       64        4       0
                text246                            4ABE     4ABE       66        4       0
                text245                            4C50     4C50       64        4       0
                text244                            4FCC     4FCC       52        4       0
                text243                           1E17A    1E17A      1B4     8000       0
                text242                            4922     4922       6A        4       0
                text241                            3D54     3D54       94        4       0
                text240                            4E30     4E30       54        4       0
                text239                            53D2     53D2       42     28F7       0
                text238                            4D78     4D78       5E        4       0
                text237                            5A14     5A14       18     28F7       0
                text236                            58EE     58EE       22     28F7       0
                text235                            579E     579E       2A     28F7       0
                text234                            4088     4088       84        4       0
                text233                            58CC     58CC       22     28F7       0
                text232                           1AE92    1AE92      328     8000       0
                text231                            58AA     58AA       22     28F7       0
                text230                            52C0     52C0       46     28F7       0
                text229                            3842     3842       B6        4       0
                text228                            3316     3316       C4        4       0
                text227                            56BA     56BA       32     28F7       0
                text226                            599A     599A       1A     28F7       0
                text225                            324C     324C       CA        4       0
                text224                            2D78     2D78       D4        4       0
                text223                            1D12     1D12      10C        4       0
                text222                            28FC     28FC       EC        4       0
                text221                            5414     5414       40     28F7       0
                text220                            538E     538E       44     28F7       0
                text219                            50BE     50BE       50        4       0
                text218                            349C     349C       C2        4       0
                text217                           1C800    1C800      232     8000       0
                text216                           1A3D8    1A3D8      39A     8000       0
                text215                            39A2     39A2       AA        4       0
                text214                            1F24     1F24      104        4       0
                text213                           19810    19810      42A     8000       0
                text212                            55EA     55EA       38     28F7       0
                text211                           178B8    178B8      4C0     8000       0
                text210                            527A     527A       46     28F7       0
                text209                            1E1E     1E1E      106        4       0
                text208                            232C     232C       FE        4       0
                text207                           1D076    1D076      212     8000       0
                text206                            4A58     4A58       66        4       0
                text205                            506E     506E       50        4       0
                text204                            534A     534A       44     28F7       0
                text203                           1213C    1213C      ACA     8000       0
                text202                           1F50C    1F50C      198     8000       0
                text201                            583E     583E       26     28F7       0
                text200                            2F1A     2F1A       CE        4       0
                text199                           1F372    1F372      19A     8000       0
                text198                            1774     1774      12C        4       0
                text197                            3A4C     3A4C       A4        4       0
                text196                            3E72     3E72       88        4       0
                text195                            110E     110E      15C        4       0
                text194                            55B2     55B2       38     28F7       0
                text193                            5772     5772       2C     28F7       0
                text192                            5746     5746       2C     28F7       0
                text191                            557A     557A       38     28F7       0
                text190                           1B9FE    1B9FE      276     8000       0
                text189                           11324    11324      E18     8000       0
                text188                            47D8     47D8       70        4       0
                text187                            57F0     57F0       28     28F7       0
                text186                             87C      87C      174        4       0
                text185                           1A03A    1A03A      39E     8000       0
                text184                             FAA      FAA      164        4       0
                text183                           1B4A6    1B4A6      2C8     8000       0
                text182                            418E     418E       82        4       0
                text181                            378A     378A       B8        4       0
                text180                            5542     5542       38     28F7       0
                text179                            2E4C     2E4C       CE        4       0
                text178                           1FB62    1FB62      192     8000       0
                text177                           18F9A    18F9A      44C     8000       0
                text176                           1F9D0    1F9D0      192     8000       0
                text175                           1ED06    1ED06      19E     8000       0
                text174                            3180     3180       CC        4       0
                text173                           1B1BA    1B1BA      2EC     8000       0
                text172                           1D688    1D688      1F4     8000       0
                text171                           1EB68    1EB68      19E     8000       0
                text170                           12C06    12C06      AC4     8000       0
                text169                            2620     2620       FA        4       0
                text168                            4F7A     4F7A       52        4       0
                text167                            5B2E     5B2E        A     28F7       0
                text166                           1E32E    1E32E      1B0     8000       0
                text165                            5AA8     5AA8       12     28F7       0
                text164                            57C8     57C8       28     28F7       0
                text163                            515A     515A       4C        4       0
                text162                            3618     3618       BA        4       0
                text161                             706      706      176        4       0
                text160                            48B6     48B6       6C        4       0
                text159                           1CE64    1CE64      212     8000       0
                text158                            212A     212A      102        4       0
                text157                           1CC4E    1CC4E      216     8000       0
                text156                            30B4     30B4       CC        4       0
                text155                           19C3A    19C3A      400     8000       0
                text154                           173B8    173B8      500     8000       0
                text153                           163D2    163D2      5B0     8000       0
                text152                           136CA    136CA      87C     8000       0
                text151                            5B5C     5B5C        6     28F7       0
                text150                            3CC0     3CC0       94        4       0
                text149                            54D0     54D0       3A     28F7       0
                text148                            4BEC     4BEC       64        4       0
                text147                            3DE8     3DE8       8A        4       0
                text146                           18B38    18B38      462     8000       0
                text145                            5A96     5A96       12     28F7       0
                text144                           1FFFE    1FFFE        2     8000       0
                text143                            56EC     56EC       2E     28F7       0
                text142                            355E     355E       BA        4       0
                text141                            5B48     5B48        8     28F7       0
                text140                             B62      B62      172        4       0
                text139                            36D2     36D2       B8        4       0
                text138                             9F0      9F0      172        4       0
                text137                            5B56     5B56        6     28F7       0
                text136                            592E     592E       1E     28F7       0
                text135                            5A84     5A84       12     28F7       0
                text134                            5B18     5B18        C     28F7       0
                text133                            5622     5622       34     28F7       0
                text132                            4F28     4F28       52        4       0
                text131                            5818     5818       26     28F7       0
                text130                            5B6A     5B6A        4     28F7       0
                text129                            59FC     59FC       18     28F7       0
                text128                            5864     5864       24     28F7       0
                text127                            5B66     5B66        4     28F7       0
                text126                            5B62     5B62        4     28F7       0
                text125                            59E4     59E4       18     28F7       0
                text124                            59CC     59CC       18     28F7       0
                text123                            5A6E     5A6E       16     28F7       0
                text122                            5B40     5B40        8     28F7       0
                text121                            5A58     5A58       16     28F7       0
                text120                            5980     5980       1A     28F7       0
                text119                            5B24     5B24        A     28F7       0
                text118                            4B88     4B88       64        4       0
                text117                            4B24     4B24       64        4       0
                text116                           16982    16982      52C     8000       0
                text115                            4310     4310       80        4       0
                text114                            4766     4766       72        4       0
                text113                            4290     4290       80        4       0
                text112                            49F2     49F2       66        4       0
                text111                            5492     5492       3E     28F7       0
                text110                           1DA60    1DA60      1D2     8000       0
                text109                            1640     1640      134        4       0
                text108                            5B38     5B38        8     28F7       0
                text107                            33DA     33DA       C2        4       0
                text106                            5306     5306       44     28F7       0
                text105                            4848     4848       6E        4       0
                text104                            3AF0     3AF0       9E        4       0
                text103                            46EE     46EE       78        4       0
                text102                            4508     4508       7C        4       0
                text101                            5AE6     5AE6        E     28F7       0
                text100                            4004     4004       84        4       0
                text99                             5AD8     5AD8        E     28F7       0
                text98                             498C     498C       66        4       0
                text97                             38F8     38F8       AA        4       0
                text96                             5234     5234       46     28F7       0
                text95                             5B0C     5B0C        C     28F7       0
                text94                             59B4     59B4       18     28F7       0
                text93                             5B50     5B50        6     28F7       0
                text92                              106      106      18C        4       0
                text91                             5A42     5A42       16     28F7       0
                text90                             29E8     29E8       E8        4       0
                text89                             19C0     19C0      120        4       0
                text88                             510E     510E       4C        4       0
                text87                             2028     2028      102        4       0
                text86                            1F83A    1F83A      196     8000       0
                text85                            1F1D8    1F1D8      19A     8000       0
                text84                            1F6A4    1F6A4      196     8000       0
                text83                            1F03E    1F03E      19A     8000       0
                text82                            1DC32    1DC32      1CE     8000       0
                text81                             4D18     4D18       60        4       0
                text80                             571A     571A       2C     28F7       0
                text79                             51EE     51EE       46     28F7       0
                text78                            18234    18234      494     8000       0
                text77                             5688     5688       32     28F7       0
                text76                            1D87C    1D87C      1E4     8000       0
                text75                             501E     501E       50        4       0
                text74                            1B76E    1B76E      290     8000       0
                text73                            1E826    1E826      1A4     8000       0
                text72                            13F46    13F46      802     8000       0
                text71                            156AA    156AA      714     8000       0
                text70                            1DFBE    1DFBE      1BC     8000       0
                text69                            1E9CA    1E9CA      19E     8000       0
                text68                             1AE0     1AE0      11C        4       0
                text67                             410C     410C       82        4       0
                text66                             1BFC     1BFC      116        4       0
                text65                             5966     5966       1A     28F7       0
                text64                             594C     594C       1A     28F7       0
                text63                             222C     222C      100        4       0
                text62                             440E     440E       7E        4       0
                text61                             271A     271A       F6        4       0
                text60                            1BEDC    1BEDC      262     8000       0
                text59                              CD4      CD4      16C        4       0
                text58                              590      590      176        4       0
                text57                             4584     4584       7A        4       0
                text56                             5B00     5B00        C     28F7       0
                text55                            1C13E    1C13E      24E     8000       0
                text54                            186C8    186C8      470     8000       0
                text53                            1C38C    1C38C      242     8000       0
                text52                             3C2A     3C2A       96        4       0
                text51                             5ACA     5ACA        E     28F7       0
                text50                            1DE00    1DE00      1BE     8000       0
                text49                            14F30    14F30      77A     8000       0
                text48                             4676     4676       78        4       0
                text47                            1BC74    1BC74      268     8000       0
                text46                            1E682    1E682      1A4     8000       0
                text45                             5454     5454       3E     28F7       0
                text44                              416      416      17A        4       0
                text43                             4ED6     4ED6       52        4       0
                text42                             18A0     18A0      120        4       0
                text41                            15DBE    15DBE      614     8000       0
                text40                              E40      E40      16A        4       0
                text39                            1EEA4    1EEA4      19A     8000       0
                text38                             242A     242A       FC        4       0
                text37                             3F80     3F80       84        4       0
                text36                            10000    10000     1324     8000       0
                text35                             5AF4     5AF4        C     28F7       0
                text34                            1D288    1D288      208     8000       0
                text33                             550A     550A       38     28F7       0
                text32                             126A     126A      150        4       0
                text31                            193E6    193E6      42A     8000       0
                text30                            1AB08    1AB08      38A     8000       0
                text29                             13BA     13BA      14E        4       0
                text28                             2BB6     2BB6       E2        4       0
                text27                             3B8E     3B8E       9C        4       0
                text26                             2C98     2C98       E0        4       0
                text25                             4DD6     4DD6       5A        4       0
                text24                            1A772    1A772      396     8000       0
                text23                              292      292      184        4       0
                text22                             4210     4210       80        4       0
                text21                            1CA32    1CA32      21C     8000       0
                text20                            1C5CE    1C5CE      232     8000       0
                text19                            14748    14748      7E8     8000       0
                text18                            1FE80    1FE80      17E     8000       0
                text17                            1E4DE    1E4DE      1A4     8000       0
                text16                            1D490    1D490      1F8     8000       0
                text15                             2AD0     2AD0       E6        4       0
                text14                             45FE     45FE       78        4       0
                text13                            16EAE    16EAE      50A     8000       0
                text12                             5ABA     5ABA       10     28F7       0
                text11                             5910     5910       1E     28F7       0
                text10                             2810     2810       EC        4       0
                text9                              3EFA     3EFA       86        4       0
                text8                              448C     448C       7C        4       0
                text7                              5656     5656       32     28F7       0
                text6                              1508     1508      138        4       0
                text5                             17D78    17D78      4BC     8000       0
                text4                              4E84     4E84       52        4       0
                text3                              2526     2526       FA        4       0
                text2                              4390     4390       7E        4       0
                text1                              5888     5888       22     28F7       0
                text0                             1FCF4    1FCF4      18C     8000       0
                cstackCOMRAM                        501      501       51      501       1
                cstackBANK5                         560      560       A0      560       1
                cstackBANK6                         600      600       E5      600       1
                cstackBANK7                         780      780       45      700       1
                cstackBANK8                         8DD      8DD       20      800       1
                bssBIGRAM                           C00      C00     10FC      C00       1
                bssBANK11                           B00      B00      100      B00       1
                bssBANK10                           A00      A00      100      A00       1
                bssBANK9                            900      900       D0      900       1
                dataBANK8                           872      872       47      800       1
                bssBANK8                            800      800       72      800       1
                dataBANK7                           7E9      7E9       16      700       1
                bssBANK7                            700      700       80      700       1
                bssBANK6                            6E5      6E5        A      600       1
                bssCOMRAM                           552      552        7      501       1
                cinit                              2FE8     2FE8       CC        4       0
                nvBANK8                             8B9      8B9       24      800       1
                nvBANK7                             7C5      7C5       24      700       1
                nvBANK6                             6EF      6EF        3      600       1
                idataBANK8                         51A6     51A6       47        4       0
                idataBANK7                         5A2C     5A2C       16     28F7       0

TOTAL           Name                               Link     Load   Length     Space
        CLASS   CODE           
                init                                102      102        4         0
                reset_vec                             0        0        4         0
                ivt0x8                                8        8       FA         0
                text247                            4CB4     4CB4       64         0
                text246                            4ABE     4ABE       66         0
                text245                            4C50     4C50       64         0
                text244                            4FCC     4FCC       52         0
                text243                           1E17A    1E17A      1B4         0
                text242                            4922     4922       6A         0
                text241                            3D54     3D54       94         0
                text240                            4E30     4E30       54         0
                text239                            53D2     53D2       42         0
                text238                            4D78     4D78       5E         0
                text237                            5A14     5A14       18         0
                text236                            58EE     58EE       22         0
                text235                            579E     579E       2A         0
                text234                            4088     4088       84         0
                text233                            58CC     58CC       22         0
                text232                           1AE92    1AE92      328         0
                text231                            58AA     58AA       22         0
                text230                            52C0     52C0       46         0
                text229                            3842     3842       B6         0
                text228                            3316     3316       C4         0
                text227                            56BA     56BA       32         0
                text226                            599A     599A       1A         0
                text225                            324C     324C       CA         0
                text224                            2D78     2D78       D4         0
                text223                            1D12     1D12      10C         0
                text222                            28FC     28FC       EC         0
                text221                            5414     5414       40         0
                text220                            538E     538E       44         0
                text219                            50BE     50BE       50         0
                text218                            349C     349C       C2         0
                text217                           1C800    1C800      232         0
                text216                           1A3D8    1A3D8      39A         0
                text215                            39A2     39A2       AA         0
                text214                            1F24     1F24      104         0
                text213                           19810    19810      42A         0
                text212                            55EA     55EA       38         0
                text211                           178B8    178B8      4C0         0
                text210                            527A     527A       46         0
                text209                            1E1E     1E1E      106         0
                text208                            232C     232C       FE         0
                text207                           1D076    1D076      212         0
                text206                            4A58     4A58       66         0
                text205                            506E     506E       50         0
                text204                            534A     534A       44         0
                text203                           1213C    1213C      ACA         0
                text202                           1F50C    1F50C      198         0
                text201                            583E     583E       26         0
                text200                            2F1A     2F1A       CE         0
                text199                           1F372    1F372      19A         0
                text198                            1774     1774      12C         0
                text197                            3A4C     3A4C       A4         0
                text196                            3E72     3E72       88         0
                text195                            110E     110E      15C         0
                text194                            55B2     55B2       38         0
                text193                            5772     5772       2C         0
                text192                            5746     5746       2C         0
                text191                            557A     557A       38         0
                text190                           1B9FE    1B9FE      276         0
                text189                           11324    11324      E18         0
                text188                            47D8     47D8       70         0
                text187                            57F0     57F0       28         0
                text186                             87C      87C      174         0
                text185                           1A03A    1A03A      39E         0
                text184                             FAA      FAA      164         0
                text183                           1B4A6    1B4A6      2C8         0
                text182                            418E     418E       82         0
                text181                            378A     378A       B8         0
                text180                            5542     5542       38         0
                text179                            2E4C     2E4C       CE         0
                text178                           1FB62    1FB62      192         0
                text177                           18F9A    18F9A      44C         0
                text176                           1F9D0    1F9D0      192         0
                text175                           1ED06    1ED06      19E         0
                text174                            3180     3180       CC         0
                text173                           1B1BA    1B1BA      2EC         0
                text172                           1D688    1D688      1F4         0
                text171                           1EB68    1EB68      19E         0
                text170                           12C06    12C06      AC4         0
                text169                            2620     2620       FA         0
                text168                            4F7A     4F7A       52         0
                text167                            5B2E     5B2E        A         0
                text166                           1E32E    1E32E      1B0         0
                text165                            5AA8     5AA8       12         0
                text164                            57C8     57C8       28         0
                text163                            515A     515A       4C         0
                text162                            3618     3618       BA         0
                text161                             706      706      176         0
                text160                            48B6     48B6       6C         0
                text159                           1CE64    1CE64      212         0
                text158                            212A     212A      102         0
                text157                           1CC4E    1CC4E      216         0
                text156                            30B4     30B4       CC         0
                text155                           19C3A    19C3A      400         0
                text154                           173B8    173B8      500         0
                text153                           163D2    163D2      5B0         0
                text152                           136CA    136CA      87C         0
                text151                            5B5C     5B5C        6         0
                text150                            3CC0     3CC0       94         0
                text149                            54D0     54D0       3A         0
                text148                            4BEC     4BEC       64         0
                text147                            3DE8     3DE8       8A         0
                text146                           18B38    18B38      462         0
                text145                            5A96     5A96       12         0
                text144                           1FFFE    1FFFE        2         0
                text143                            56EC     56EC       2E         0
                text142                            355E     355E       BA         0
                text141                            5B48     5B48        8         0
                text140                             B62      B62      172         0
                text139                            36D2     36D2       B8         0
                text138                             9F0      9F0      172         0
                text137                            5B56     5B56        6         0
                text136                            592E     592E       1E         0
                text135                            5A84     5A84       12         0
                text134                            5B18     5B18        C         0
                text133                            5622     5622       34         0
                text132                            4F28     4F28       52         0
                text131                            5818     5818       26         0
                text130                            5B6A     5B6A        4         0
                text129                            59FC     59FC       18         0
                text128                            5864     5864       24         0
                text127                            5B66     5B66        4         0
                text126                            5B62     5B62        4         0
                text125                            59E4     59E4       18         0
                text124                            59CC     59CC       18         0
                text123                            5A6E     5A6E       16         0
                text122                            5B40     5B40        8         0
                text121                            5A58     5A58       16         0
                text120                            5980     5980       1A         0
                text119                            5B24     5B24        A         0
                text118                            4B88     4B88       64         0
                text117                            4B24     4B24       64         0
                text116                           16982    16982      52C         0
                text115                            4310     4310       80         0
                text114                            4766     4766       72         0
                text113                            4290     4290       80         0
                text112                            49F2     49F2       66         0
                text111                            5492     5492       3E         0
                text110                           1DA60    1DA60      1D2         0
                text109                            1640     1640      134         0
                text108                            5B38     5B38        8         0
                text107                            33DA     33DA       C2         0
                text106                            5306     5306       44         0
                text105                            4848     4848       6E         0
                text104                            3AF0     3AF0       9E         0
                text103                            46EE     46EE       78         0
                text102                            4508     4508       7C         0
                text101                            5AE6     5AE6        E         0
                text100                            4004     4004       84         0
                text99                             5AD8     5AD8        E         0
                text98                             498C     498C       66         0
                text97                             38F8     38F8       AA         0
                text96                             5234     5234       46         0
                text95                             5B0C     5B0C        C         0
                text94                             59B4     59B4       18         0
                text93                             5B50     5B50        6         0
                text92                              106      106      18C         0
                text91                             5A42     5A42       16         0
                text90                             29E8     29E8       E8         0
                text89                             19C0     19C0      120         0
                text88                             510E     510E       4C         0
                text87                             2028     2028      102         0
                text86                            1F83A    1F83A      196         0
                text85                            1F1D8    1F1D8      19A         0
                text84                            1F6A4    1F6A4      196         0
                text83                            1F03E    1F03E      19A         0
                text82                            1DC32    1DC32      1CE         0
                text81                             4D18     4D18       60         0
                text80                             571A     571A       2C         0
                text79                             51EE     51EE       46         0
                text78                            18234    18234      494         0
                text77                             5688     5688       32         0
                text76                            1D87C    1D87C      1E4         0
                text75                             501E     501E       50         0
                text74                            1B76E    1B76E      290         0
                text73                            1E826    1E826      1A4         0
                text72                            13F46    13F46      802         0
                text71                            156AA    156AA      714         0
                text70                            1DFBE    1DFBE      1BC         0
                text69                            1E9CA    1E9CA      19E         0
                text68                             1AE0     1AE0      11C         0
                text67                             410C     410C       82         0
                text66                             1BFC     1BFC      116         0
                text65                             5966     5966       1A         0
                text64                             594C     594C       1A         0
                text63                             222C     222C      100         0
                text62                             440E     440E       7E         0
                text61                             271A     271A       F6         0
                text60                            1BEDC    1BEDC      262         0
                text59                              CD4      CD4      16C         0
                text58                              590      590      176         0
                text57                             4584     4584       7A         0
                text56                             5B00     5B00        C         0
                text55                            1C13E    1C13E      24E         0
                text54                            186C8    186C8      470         0
                text53                            1C38C    1C38C      242         0
                text52                             3C2A     3C2A       96         0
                text51                             5ACA     5ACA        E         0
                text50                            1DE00    1DE00      1BE         0
                text49                            14F30    14F30      77A         0
                text48                             4676     4676       78         0
                text47                            1BC74    1BC74      268         0
                text46                            1E682    1E682      1A4         0
                text45                             5454     5454       3E         0
                text44                              416      416      17A         0
                text43                             4ED6     4ED6       52         0
                text42                             18A0     18A0      120         0
                text41                            15DBE    15DBE      614         0
                text40                              E40      E40      16A         0
                text39                            1EEA4    1EEA4      19A         0
                text38                             242A     242A       FC         0
                text37                             3F80     3F80       84         0
                text36                            10000    10000     1324         0
                text35                             5AF4     5AF4        C         0
                text34                            1D288    1D288      208         0
                text33                             550A     550A       38         0
                text32                             126A     126A      150         0
                text31                            193E6    193E6      42A         0
                text30                            1AB08    1AB08      38A         0
                text29                             13BA     13BA      14E         0
                text28                             2BB6     2BB6       E2         0
                text27                             3B8E     3B8E       9C         0
                text26                             2C98     2C98       E0         0
                text25                             4DD6     4DD6       5A         0
                text24                            1A772    1A772      396         0
                text23                              292      292      184         0
                text22                             4210     4210       80         0
                text21                            1CA32    1CA32      21C         0
                text20                            1C5CE    1C5CE      232         0
                text19                            14748    14748      7E8         0
                text18                            1FE80    1FE80      17E         0
                text17                            1E4DE    1E4DE      1A4         0
                text16                            1D490    1D490      1F8         0
                text15                             2AD0     2AD0       E6         0
                text14                             45FE     45FE       78         0
                text13                            16EAE    16EAE      50A         0
                text12                             5ABA     5ABA       10         0
                text11                             5910     5910       1E         0
                text10                             2810     2810       EC         0
                text9                              3EFA     3EFA       86         0
                text8                              448C     448C       7C         0
                text7                              5656     5656       32         0
                text6                              1508     1508      138         0
                text5                             17D78    17D78      4BC         0
                text4                              4E84     4E84       52         0
                text3                              2526     2526       FA         0
                text2                              4390     4390       7E         0
                text1                              5888     5888       22         0
                text0                             1FCF4    1FCF4      18C         0
                cinit                              2FE8     2FE8       CC         0
                idataBANK8                         51A6     51A6       47         0
                idataBANK7                         5A2C     5A2C       16         0

        CLASS   CONST          

        CLASS   SMALLCONST     

        CLASS   MEDIUMCONST    
                mediumconst                        DD0E     DD0E     22F2         0

        CLASS   COMRAM         
                cstackCOMRAM                        501      501       51         1
                bssCOMRAM                           552      552        7         1

        CLASS   ABS1           

        CLASS   BIGRAM         
                bssBIGRAM                           C00      C00     10FC         1

        CLASS   RAM            

        CLASS   BANK5          
                cstackBANK5                         560      560       A0         1

        CLASS   BANK6          
                cstackBANK6                         600      600       E5         1
                bssBANK6                            6E5      6E5        A         1
                nvBANK6                             6EF      6EF        3         1

        CLASS   BANK7          
                cstackBANK7                         780      780       45         1
                dataBANK7                           7E9      7E9       16         1
                bssBANK7                            700      700       80         1
                nvBANK7                             7C5      7C5       24         1

        CLASS   BANK8          
                cstackBANK8                         8DD      8DD       20         1
                dataBANK8                           872      872       47         1
                bssBANK8                            800      800       72         1
                nvBANK8                             8B9      8B9       24         1

        CLASS   BANK9          
                bssBANK9                            900      900       D0         1

        CLASS   BANK10         
                bssBANK10                           A00      A00      100         1

        CLASS   BANK11         
                bssBANK11                           B00      B00      100         1

        CLASS   BANK12         

        CLASS   BANK13         

        CLASS   BANK14         

        CLASS   BANK15         

        CLASS   BANK16         

        CLASS   BANK17         

        CLASS   BANK18         

        CLASS   BANK19         

        CLASS   BANK20         

        CLASS   BANK21         

        CLASS   BANK22         

        CLASS   BANK23         

        CLASS   BANK24         

        CLASS   BANK25         

        CLASS   BANK26         

        CLASS   BANK27         

        CLASS   BANK28         

        CLASS   BANK29         

        CLASS   BANK30         

        CLASS   BANK31         

        CLASS   BANK32         

        CLASS   BANK33         

        CLASS   BANK34         

        CLASS   BANK35         

        CLASS   BANK36         

        CLASS   SFR            

        CLASS   BIGSFR         

        CLASS   CONFIG         
                config                           300000   300000        A         4

        CLASS   IDLOC          

        CLASS   EEDATA         

        CLASS   FARRAM         

        CLASS   HEAP           

        CLASS   STACK          



SEGMENTS        Name                           Load    Length   Top    Selector   Space  Class

                reset_vec                      000000  000004  000004         0       0  CODE    
                ivt0x8                         000008  0051E5  0051ED         4       0  CODE    
                cstackCOMRAM                   000501  000058  000559       501       1  COMRAM  
                cstackBANK5                    000560  0000A0  000600       560       1  BANK5   
                cstackBANK6                    000600  0000F2  0006F2       600       1  BANK6   
                bssBANK7                       000700  0000FF  0007FF       700       1  BANK7   
                bssBANK8                       000800  0000FD  0008FD       800       1  BANK8   
                bssBANK9                       000900  0000D0  0009D0       900       1  BANK9   
                bssBANK10                      000A00  000100  000B00       A00       1  BANK10  
                bssBANK11                      000B00  000100  000C00       B00       1  BANK11  
                bssBIGRAM                      000C00  0010FC  001CFC       C00       1  BIGRAM  
                text79                         0051EE  000980  005B6E      28F7       0  CODE    
                mediumconst                    00DD0E  0022F2  010000      6E87       0  MEDIUMCO
                text36                         010000  010000  020000      8000       0  CODE    


UNUSED ADDRESS RANGES

        Name                Unused          Largest block    Delta
        BANK28           001CFC-001CFF                4
        BANK29           001D00-001DFF              100
        BANK30           001E00-001EFF              100
        BANK31           001F00-001FFF              100
        BANK32           002000-0020FF              100
        BANK33           002100-0021FF              100
        BANK34           002200-0022FF              100
        BANK35           002300-0023FF              100
        BANK36           002400-0024FF              100
        BANK6            0006F2-0006FF                E
        BANK7            0007FF-0007FF                1
        BANK8            0008FD-0008FF                3
        BANK9            0009D0-0009FF               30
        BIGRAM           000559-00055F                7
                         0006F2-0006FF                E
                         0007FF-0007FF                1
                         0008FD-0008FF                3
                         0009D0-0009FF               30
                         001CFC-0024FF              804
        BIGSFR           000000-0004FF              500
                         002500-0025FF              100
        CODE             000004-000007                4
                         0051ED-0051ED                1
                         005B6E-00DD0D             81A0
        COMRAM           000559-00055F                7
        CONFIG           30000A-300011                8
        CONST            000004-000007                4
                         0051ED-0051ED                1
                         005B6E-00DD0D             81A0
        EEDATA           380000-3803FF              400
        IDLOC            200000-20003F               40
        MEDIUMCONST      0051ED-0051ED                1
                         005B6E-00DD0D             81A0
        RAM              0006F2-0006FF                E
                         0007FF-0007FF                1
                         0008FD-0008FF                3
                         0009D0-0009FF               30
                         001CFC-0024FF              100
        SFR              000000-0004FF              100
                         002500-0025FF              100
        SMALLCONST       0051ED-0051ED                1
                         005B6E-00DD0D              100

                                  Symbol Table

?_SDCard_debug                                 cstackCOMRAM 000508
?_SDCard_init                                  cstackBANK5  0005D6
?_SDCard_read512                               cstackBANK5  0005EF
?_SDCard_write512                              cstackBANK5  0005EF
?___SDCard_command_r1                          cstackCOMRAM 00051F
?___SDCard_crc16                               cstackCOMRAM 000508
?___aldiv                                      cstackCOMRAM 000508
?___almod                                      cstackCOMRAM 000508
?___fladd                                      cstackCOMRAM 000508
?___fldiv                                      cstackCOMRAM 000522
?___flmul                                      cstackCOMRAM 000508
?___flneg                                      cstackCOMRAM 000508
?___flsub                                      cstackCOMRAM 000521
?___fltol                                      cstackCOMRAM 000508
?___fpclassifyf                                cstackCOMRAM 000508
?___lldiv                                      cstackCOMRAM 000508
?___llmod                                      cstackCOMRAM 000508
?___lmul                                       cstackCOMRAM 000508
?___lwmod                                      cstackCOMRAM 000508
?___strtoxl                                    cstackCOMRAM 000515
?___wmul                                       cstackCOMRAM 000508
?___xxtofl                                     cstackCOMRAM 000514
?_abs                                          cstackCOMRAM 000512
?_check_fs                                     cstackBANK6  000636
?_clst2sect                                    cstackCOMRAM 000514
?_cpm_disk_read                                cstackBANK6  00069D
?_cpm_trsect_from_lba                          cstackBANK5  0005CE
?_cpm_trsect_to_lba                            cstackBANK5  0005CE
?_create_chain                                 cstackBANK6  000657
?_ctoa                                         cstackCOMRAM 000514
?_dbc_1st                                      cstackCOMRAM 000508
?_dbc_2nd                                      cstackCOMRAM 000508
?_disas_op                                     cstackBANK5  0005CA
?_disas_ops                                    cstackBANK5  0005DF
?_disk_init                                    cstackBANK6  0006CE
?_dtoa                                         cstackCOMRAM 000526
?_efgtoa                                       cstackBANK5  000560
?_emuz80_47q_name                              cstackCOMRAM 000508
?_emuz80_common_high_addr_mask                 cstackCOMRAM 000508
?_emuz80_common_low_addr_mask                  cstackCOMRAM 000508
?_fatdisk_debug                                cstackCOMRAM 000508
?_find_volume                                  cstackBANK6  000644
?_floorf                                       cstackCOMRAM 00053B
?_get_fat                                      cstackBANK6  000636
?_get_fattime                                  cstackCOMRAM 000508
?_get_ldnumber                                 cstackCOMRAM 000508
?_io_stat                                      cstackCOMRAM 000508
?_isalnum                                      cstackCOMRAM 00050E
?_isalpha                                      cstackCOMRAM 000508
?_isdigit                                      cstackCOMRAM 000508
?_islower                                      cstackCOMRAM 000508
?_isspace                                      cstackCOMRAM 000508
?_isupper                                      cstackCOMRAM 000508
?_labs                                         cstackCOMRAM 000508
?_ld_clust                                     cstackCOMRAM 00050F
?_ld_dword                                     cstackCOMRAM 000508
?_ld_word                                      cstackCOMRAM 000508
?_memcmp                                       cstackCOMRAM 000508
?_menu_select                                  cstackBANK6  0006CF
?_mon_chartoval                                cstackCOMRAM 000508
?_mon_cmd_breakpoint                           cstackBANK6  0006B2
?_mon_cmd_clearbreakpoint                      cstackBANK6  0006B2
?_mon_cmd_continue                             cstackBANK6  0006B2
?_mon_cmd_disassemble                          cstackBANK6  0006B2
?_mon_cmd_diskread                             cstackBANK6  0006B2
?_mon_cmd_dump                                 cstackBANK6  0006B2
?_mon_cmd_help                                 cstackBANK6  0006B2
?_mon_cmd_jump                                 cstackBANK6  0006B2
?_mon_cmd_reset                                cstackBANK6  0006B2
?_mon_cmd_sdread                               cstackBANK6  0006B2
?_mon_cmd_set                                  cstackBANK6  0006B2
?_mon_cmd_status                               cstackBANK6  0006B2
?_mon_cmd_step                                 cstackBANK6  0006B2
?_mon_cmd_write                                cstackBANK6  0006B2
?_mon_get_hexval                               cstackCOMRAM 00050D
?_mon_get_str                                  cstackCOMRAM 000512
?_mon_parse                                    cstackBANK5  0005CE
?_mon_prompt                                   cstackBANK6  0006C8
?_mon_strtoval                                 cstackCOMRAM 000538
?_otoa                                         cstackCOMRAM 000526
?_pad                                          cstackCOMRAM 00051B
?_printf                                       cstackBANK5  0005B4
?_read_prec_or_width                           cstackCOMRAM 00050E
?_sprintf                                      cstackBANK5  0005B4
?_stoa                                         cstackCOMRAM 000514
?_strchr                                       cstackCOMRAM 000508
?_strcmp                                       cstackCOMRAM 000508
?_strlen                                       cstackCOMRAM 000508
?_strncmp                                      cstackCOMRAM 000508
?_strtoul                                      cstackCOMRAM 000532
?_toupper                                      cstackCOMRAM 00050C
?_util_stricmp                                 cstackCOMRAM 000510
?_utoa                                         cstackCOMRAM 000526
?_vfpfcnvrt                                    cstackBANK5  000593
?_vfprintf                                     cstackBANK5  0005AC
?_xtoa                                         cstackCOMRAM 000526
?i2___lwmod                                    cstackCOMRAM 000501
Default_ISR@c                                  cstackCOMRAM 000507
IVTBASEH                                       (abs)        00045E
IVTBASEL                                       (abs)        00045D
IVTBASEU                                       (abs)        00045F
SDCard_command@argument                        cstackCOMRAM 00052F
SDCard_command@command                         cstackCOMRAM 000537
SDCard_command@length                          cstackCOMRAM 000535
SDCard_command@response_buffer                 cstackCOMRAM 000533
SDCard_command@responsep                       cstackCOMRAM 00053C
SDCard_command@result                          cstackCOMRAM 00053A
SDCard_command@spi                             cstackCOMRAM 000538
SDCard_crc@buf                                 cstackCOMRAM 000508
SDCard_crc@count                               cstackCOMRAM 00050A
SDCard_crc@crc                                 cstackCOMRAM 000510
SDCard_crc@endp                                cstackCOMRAM 00050C
SDCard_crc@i                                   cstackCOMRAM 00050E
SDCard_crc@p                                   cstackCOMRAM 000511
SDCard_debug@newval                            cstackCOMRAM 000508
SDCard_debug@res                               cstackCOMRAM 00050A
SDCard_end_transaction@spi                     cstackCOMRAM 000519
SDCard_init@buf                                cstackBANK5  0005E0
SDCard_init@clock_speed                        cstackBANK5  0005D8
SDCard_init@i                                  cstackBANK5  0005DC
SDCard_init@initial_clock_speed                cstackBANK5  0005D6
SDCard_init@spi                                cstackBANK5  0005DE
SDCard_init@timeout                            cstackBANK5  0005DA
SDCard_read512@addr                            cstackBANK5  0005EF
SDCard_read512@buf                             cstackBANK5  0005F5
SDCard_read512@count                           cstackBANK5  0005F7
SDCard_read512@crc                             cstackBANK6  00060C
SDCard_read512@i                               cstackBANK6  000600
SDCard_read512@i_2499                          cstackBANK6  000602
SDCard_read512@offs                            cstackBANK5  0005F3
SDCard_read512@resp_crc                        cstackBANK6  000606
SDCard_read512@response                        cstackBANK6  00060E
SDCard_read512@result                          cstackBANK6  000608
SDCard_read512@retry                           cstackBANK6  000604
SDCard_read512@spi                             cstackBANK6  00060A
SDCard_write512@addr                           cstackBANK5  0005EF
SDCard_write512@buf                            cstackBANK5  0005F5
SDCard_write512@count                          cstackBANK5  0005F7
SDCard_write512@crc                            cstackBANK6  000608
SDCard_write512@i                              cstackBANK6  000600
SDCard_write512@i_2516                         cstackBANK6  000602
SDCard_write512@offs                           cstackBANK5  0005F3
SDCard_write512@response                       cstackBANK6  00060C
SDCard_write512@result                         cstackBANK6  000606
SDCard_write512@retry                          cstackBANK6  000604
SDCard_write512@spi                            cstackBANK6  00060A
SPI_SD_begin@ctx                               cstackCOMRAM 00050A
SPI_SD_begin@ctx_                              cstackCOMRAM 000508
SPI_SD_begin_transaction@ctx_                  cstackCOMRAM 00050C
SPI_SD_configure@bit_order                     cstackBANK5  0005D2
SPI_SD_configure@clock_speed                   cstackBANK5  0005D0
SPI_SD_configure@ctx_                          cstackBANK5  0005CE
SPI_SD_configure@data_mode                     cstackBANK5  0005D3
SPI_SD_dummy_clocks@clocks                     cstackCOMRAM 000514
SPI_SD_dummy_clocks@ctx_                       cstackCOMRAM 000512
SPI_SD_dummy_clocks@dummy                      cstackCOMRAM 000518
SPI_SD_dummy_clocks@i                          cstackCOMRAM 000516
SPI_SD_end_transaction@ctx_                    cstackCOMRAM 00050C
SPI_SD_receive@buf                             cstackCOMRAM 00050A
SPI_SD_receive@count                           cstackCOMRAM 00050C
SPI_SD_receive@ctx_                            cstackCOMRAM 000508
SPI_SD_receive@i                               cstackCOMRAM 000511
SPI_SD_receive@i_2416                          cstackCOMRAM 000513
SPI_SD_receive@p                               cstackCOMRAM 000514
SPI_SD_receive@repeat                          cstackCOMRAM 000510
SPI_SD_receive_byte@ctx_                       cstackCOMRAM 000516
SPI_SD_receive_byte@dummy                      cstackCOMRAM 000518
SPI_SD_select@ctx_                             cstackCOMRAM 000508
SPI_SD_select@select                           cstackCOMRAM 00050A
SPI_SD_send@buf                                cstackCOMRAM 00050A
SPI_SD_send@count                              cstackCOMRAM 00050C
SPI_SD_send@ctx_                               cstackCOMRAM 000508
SPI_SD_send@i                                  cstackCOMRAM 00050E
SPI_SD_send@p                                  cstackCOMRAM 000510
_ANSELA                                        (abs)        000400
_ANSELB                                        (abs)        000408
_ANSELC                                        (abs)        000410
_ANSELD                                        (abs)        000418
_ANSELE0                                       (abs)        002100
_ANSELE1                                       (abs)        002101
_ANSELE2                                       (abs)        002102
_CLC3IE                                        (abs)        00252D
_CLC3IF                                        (abs)        0025AD
_CLCDATA                                       (abs)        0000D4
_CLCIN0PPS                                     (abs)        000261
_CLCIN1PPS                                     (abs)        000262
_CLCIN2PPS                                     (abs)        000263
_CLCIN4PPS                                     (abs)        000265
_CLCIN6PPS                                     (abs)        000267
_CLCSELECT                                     (abs)        0000D5
_CLCnCON                                       (abs)        0000D6
_CLCnGLS0                                      (abs)        0000DC
_CLCnGLS1                                      (abs)        0000DD
_CLCnGLS2                                      (abs)        0000DE
_CLCnGLS3                                      (abs)        0000DF
_CLCnPOL                                       (abs)        0000D7
_CLCnSEL0                                      (abs)        0000D8
_CLCnSEL1                                      (abs)        0000D9
_CLCnSEL2                                      (abs)        0000DA
_CLCnSEL3                                      (abs)        0000DB
_DbcTbl                                        mediumconst  00DD55
_Default_ISR                                   text244      004FCC
_FatFs                                         bssBANK7     000751
_Fsid                                          bssBANK7     00074F
_G3POL                                         (abs)        0006BA
_GIE                                           (abs)        0026B7
_IVTBASE                                       (abs)        00045D
_IVTLOCK                                       (abs)        000459
_IVTLOCKbits                                   (abs)        000459
_LATA1                                         (abs)        0025F1
_LATA3                                         (abs)        0025F3
_LATA4                                         (abs)        0025F4
_LATA6                                         (abs)        0025F6
_LATB                                          (abs)        0004BF
_LATC                                          (abs)        0004C0
_LATD                                          (abs)        0004C1
_LATD7                                         (abs)        00260F
_LATE0                                         (abs)        002610
_LATE1                                         (abs)        002611
_LATE2                                         (abs)        002612
_NCO1CLK                                       (abs)        000447
_NCO1EN                                        (abs)        002237
_NCO1INC                                       (abs)        000443
_NCO1OUT                                       (abs)        002235
_NCO1PFM                                       (abs)        002230
_NCO1POL                                       (abs)        002234
_OSCFRQ                                        (abs)        0000B1
_PORTB                                         (abs)        0004CF
_PORTC                                         (abs)        0004D0
_RA0                                           (abs)        002670
_RA1                                           (abs)        002671
_RA1PPS                                        (abs)        000202
_RA2PPS                                        (abs)        000203
_RA3PPS                                        (abs)        000204
_RA4PPS                                        (abs)        000205
_RA5                                           (abs)        002675
_RA6PPS                                        (abs)        000207
_RC0PPS                                        (abs)        000211
_RC1PPS                                        (abs)        000212
_RD7PPS                                        (abs)        000220
_SDCard_command                                text8        00448C
_SDCard_crc                                    text234      004088
_SDCard_debug                                  text65       005966
_SDCard_end_transaction                        text235      00579E
_SDCard_init                                   text5        017D78
_SDCard_read512                                text185      01A03A
_SDCard_write512                               text177      018F9A
_SLRCONCbits                                   (abs)        000413
_SPI1BAUD                                      (abs)        000089
_SPI1CLK                                       (abs)        00008C
_SPI1CON0                                      (abs)        000084
_SPI1CON0bits                                  (abs)        000084
_SPI1CON1                                      (abs)        000085
_SPI1CON1bits                                  (abs)        000085
_SPI1CON2bits                                  (abs)        000086
_SPI1INTE                                      (abs)        00008B
_SPI1RXB                                       (abs)        000080
_SPI1RXIF                                      (abs)        002588
_SPI1SCKPPS                                    (abs)        00026A
_SPI1SDIPPS                                    (abs)        00026B
_SPI1TCNTH                                     (abs)        000083
_SPI1TCNTL                                     (abs)        000082
_SPI1TWIDTH                                    (abs)        000088
_SPI1TXB                                       (abs)        000081
_SPI_SD_begin                                  text7        005656
_SPI_SD_begin_transaction                      text233      0058CC
_SPI_SD_configure                              text6        001508
_SPI_SD_ctx                                    dataBANK7    0007F7
_SPI_SD_dummy_clocks                           text238      004D78
_SPI_SD_end_transaction                        text236      0058EE
_SPI_SD_receive                                text232      01AE92
_SPI_SD_receive_byte                           text231      0058AA
_SPI_SD_select                                 text237      005A14
_SPI_SD_send                                   text241      003D54
_TRISA0                                        (abs)        002630
_TRISA1                                        (abs)        002631
_TRISA2                                        (abs)        002632
_TRISA3                                        (abs)        002633
_TRISA4                                        (abs)        002634
_TRISA5                                        (abs)        002635
_TRISA6                                        (abs)        002636
_TRISA7                                        (abs)        002637
_TRISB                                         (abs)        0004C7
_TRISC                                         (abs)        0004C8
_TRISC0                                        (abs)        002640
_TRISC1                                        (abs)        002641
_TRISC2                                        (abs)        002642
_TRISD                                         (abs)        0004C9
_TRISD6                                        (abs)        00264E
_TRISD7                                        (abs)        00264F
_TRISE0                                        (abs)        002650
_TRISE1                                        (abs)        002651
_TRISE2                                        (abs)        002652
_U3BRG                                         (abs)        0002D4
_U3ON                                          (abs)        001697
_U3RXB                                         (abs)        0002C7
_U3RXEN                                        (abs)        00168C
_U3RXIE                                        (abs)        002538
_U3RXIF                                        (abs)        0025B8
_U3RXPPS                                       (abs)        000276
_U3TXB                                         (abs)        0002C9
_U3TXEN                                        (abs)        00168D
_U3TXIE                                        (abs)        002539
_U3TXIF                                        (abs)        0025B9
_WPUA0                                         (abs)        002008
_WPUA1                                         (abs)        002009
_WPUA5                                         (abs)        00200D
_WPUB                                          (abs)        000409
_WPUC                                          (abs)        000411
_WPUD                                          (abs)        000419
_WPUD6                                         (abs)        0020CE
_WPUE2                                         (abs)        00210A
__Exit                                         text137      005B56
__Exit@ec                                      cstackCOMRAM 000508
__HRAM                                         (abs)        000000
__H__absolute__                                __absolute__ 000000
__Habs1                                        abs1         000000
__Hbank10                                      bank10       000000
__Hbank11                                      bank11       000000
__Hbank12                                      bank12       000000
__Hbank13                                      bank13       000000
__Hbank14                                      bank14       000000
__Hbank15                                      bank15       000000
__Hbank16                                      bank16       000000
__Hbank17                                      bank17       000000
__Hbank18                                      bank18       000000
__Hbank19                                      bank19       000000
__Hbank20                                      bank20       000000
__Hbank21                                      bank21       000000
__Hbank22                                      bank22       000000
__Hbank23                                      bank23       000000
__Hbank24                                      bank24       000000
__Hbank25                                      bank25       000000
__Hbank26                                      bank26       000000
__Hbank27                                      bank27       000000
__Hbank28                                      bank28       000000
__Hbank29                                      bank29       000000
__Hbank30                                      bank30       000000
__Hbank31                                      bank31       000000
__Hbank32                                      bank32       000000
__Hbank33                                      bank33       000000
__Hbank34                                      bank34       000000
__Hbank35                                      bank35       000000
__Hbank36                                      bank36       000000
__Hbank5                                       bank5        000000
__Hbank6                                       bank6        000000
__Hbank7                                       bank7        000000
__Hbank8                                       bank8        000000
__Hbank9                                       bank9        000000
__Hbigbss                                      bigbss       000000
__Hbigdata                                     bigdata      000000
__Hbigram                                      bigram       000000
__Hbigsfr                                      bigsfr       000000
__Hbss                                         bss          000000
__HbssBANK10                                   bssBANK10    000000
__HbssBANK11                                   bssBANK11    000000
__HbssBANK6                                    bssBANK6     000000
__HbssBANK7                                    bssBANK7     000000
__HbssBANK8                                    bssBANK8     000000
__HbssBANK9                                    bssBANK9     000000
__HbssBIGRAM                                   bssBIGRAM    000000
__HbssCOMRAM                                   bssCOMRAM    000000
__Hcinit                                       cinit        000000
__Hclrtext                                     clrtext      000000
__Hcomram                                      comram       000000
__Hconfig                                      config       30000A
__Hconst                                       const        000000
__HcstackBANK5                                 cstackBANK5  000000
__HcstackBANK6                                 cstackBANK6  000000
__HcstackBANK7                                 cstackBANK7  000000
__HcstackBANK8                                 cstackBANK8  000000
__HcstackCOMRAM                                cstackCOMRAM 000000
__Hdata                                        data         000000
__HdataBANK7                                   dataBANK7    000000
__HdataBANK8                                   dataBANK8    000000
__Heeprom_data                                 eeprom_data  000000
__Hfarbss                                      farbss       000000
__Hfardata                                     fardata      000000
__Hheap                                        heap         000000
__Hibigdata                                    ibigdata     000000
__Hidata                                       idata        000000
__HidataBANK7                                  idataBANK7   000000
__HidataBANK8                                  idataBANK8   000000
__Hidloc                                       idloc        000000
__Hifardata                                    ifardata     000000
__Hinit                                        init         000106
__Hintsave_regs                                intsave_regs 000000
__Hirdata                                      irdata       000000
__Hivt0x8                                      ivt0x8       000102
__Hmediumconst                                 mediumconst  010000
__HnvBANK6                                     nvBANK6      000000
__HnvBANK7                                     nvBANK7      000000
__HnvBANK8                                     nvBANK8      000000
__HnvFARRAM                                    nvFARRAM     000000
__Hnvbit                                       nvbit        000000
__Hnvrram                                      nvrram       000000
__Hparam                                       rparam       000000
__Hpowerup                                     powerup      000000
__Hram                                         ram          000000
__Hramtop                                      ramtop       002600
__Hrbit                                        rbit         000000
__Hrbss                                        rbss         000000
__Hrdata                                       rdata        000000
__Hreset_vec                                   reset_vec    000004
__Hrparam                                      rparam       000000
__Hsfr                                         sfr          000000
__Hsmallconst                                  smallconst   000000
__Hspace_0                                     (abs)        020000
__Hspace_1                                     (abs)        001CFC
__Hspace_2                                     (abs)        000000
__Hspace_4                                     (abs)        60000A
__Hstack                                       stack        000000
__Hstruct                                      struct       000000
__Htemp                                        temp         000000
__Htext                                        text         000000
__Htext0                                       text0        000000
__Htext1                                       text1        000000
__Htext10                                      text10       000000
__Htext100                                     text100      000000
__Htext101                                     text101      000000
__Htext102                                     text102      000000
__Htext103                                     text103      000000
__Htext104                                     text104      000000
__Htext105                                     text105      000000
__Htext106                                     text106      000000
__Htext107                                     text107      000000
__Htext108                                     text108      000000
__Htext109                                     text109      000000
__Htext11                                      text11       000000
__Htext110                                     text110      000000
__Htext111                                     text111      000000
__Htext112                                     text112      000000
__Htext113                                     text113      000000
__Htext114                                     text114      000000
__Htext115                                     text115      000000
__Htext116                                     text116      000000
__Htext117                                     text117      000000
__Htext118                                     text118      000000
__Htext119                                     text119      000000
__Htext12                                      text12       000000
__Htext120                                     text120      000000
__Htext121                                     text121      000000
__Htext122                                     text122      000000
__Htext123                                     text123      000000
__Htext124                                     text124      000000
__Htext125                                     text125      000000
__Htext126                                     text126      000000
__Htext127                                     text127      000000
__Htext128                                     text128      000000
__Htext129                                     text129      000000
__Htext13                                      text13       000000
__Htext130                                     text130      000000
__Htext131                                     text131      000000
__Htext132                                     text132      000000
__Htext133                                     text133      000000
__Htext134                                     text134      000000
__Htext135                                     text135      000000
__Htext136                                     text136      000000
__Htext137                                     text137      000000
__Htext138                                     text138      000000
__Htext139                                     text139      000000
__Htext14                                      text14       000000
__Htext140                                     text140      000000
__Htext141                                     text141      000000
__Htext142                                     text142      000000
__Htext143                                     text143      000000
__Htext144                                     text144      000000
__Htext145                                     text145      000000
__Htext146                                     text146      000000
__Htext147                                     text147      000000
__Htext148                                     text148      000000
__Htext149                                     text149      000000
__Htext15                                      text15       000000
__Htext150                                     text150      000000
__Htext151                                     text151      000000
__Htext152                                     text152      000000
__Htext153                                     text153      000000
__Htext154                                     text154      000000
__Htext155                                     text155      000000
__Htext156                                     text156      000000
__Htext157                                     text157      000000
__Htext158                                     text158      000000
__Htext159                                     text159      000000
__Htext16                                      text16       000000
__Htext160                                     text160      000000
__Htext161                                     text161      000000
__Htext162                                     text162      000000
__Htext163                                     text163      000000
__Htext164                                     text164      000000
__Htext165                                     text165      000000
__Htext166                                     text166      000000
__Htext167                                     text167      000000
__Htext168                                     text168      000000
__Htext169                                     text169      000000
__Htext17                                      text17       000000
__Htext170                                     text170      000000
__Htext171                                     text171      000000
__Htext172                                     text172      000000
__Htext173                                     text173      000000
__Htext174                                     text174      000000
__Htext175                                     text175      000000
__Htext176                                     text176      000000
__Htext177                                     text177      000000
__Htext178                                     text178      000000
__Htext179                                     text179      000000
__Htext18                                      text18       000000
__Htext180                                     text180      000000
__Htext181                                     text181      000000
__Htext182                                     text182      000000
__Htext183                                     text183      000000
__Htext184                                     text184      000000
__Htext185                                     text185      000000
__Htext186                                     text186      000000
__Htext187                                     text187      000000
__Htext188                                     text188      000000
__Htext189                                     text189      000000
__Htext19                                      text19       000000
__Htext190                                     text190      000000
__Htext191                                     text191      000000
__Htext192                                     text192      000000
__Htext193                                     text193      000000
__Htext194                                     text194      000000
__Htext195                                     text195      000000
__Htext196                                     text196      000000
__Htext197                                     text197      000000
__Htext198                                     text198      000000
__Htext199                                     text199      000000
__Htext2                                       text2        000000
__Htext20                                      text20       000000
__Htext200                                     text200      000000
__Htext201                                     text201      000000
__Htext202                                     text202      000000
__Htext203                                     text203      000000
__Htext204                                     text204      000000
__Htext205                                     text205      000000
__Htext206                                     text206      000000
__Htext207                                     text207      000000
__Htext208                                     text208      000000
__Htext209                                     text209      000000
__Htext21                                      text21       000000
__Htext210                                     text210      000000
__Htext211                                     text211      000000
__Htext212                                     text212      000000
__Htext213                                     text213      000000
__Htext214                                     text214      000000
__Htext215                                     text215      000000
__Htext216                                     text216      000000
__Htext217                                     text217      000000
__Htext218                                     text218      000000
__Htext219                                     text219      000000
__Htext22                                      text22       000000
__Htext220                                     text220      000000
__Htext221                                     text221      000000
__Htext222                                     text222      000000
__Htext223                                     text223      000000
__Htext224                                     text224      000000
__Htext225                                     text225      000000
__Htext226                                     text226      000000
__Htext227                                     text227      000000
__Htext228                                     text228      000000
__Htext229                                     text229      000000
__Htext23                                      text23       000000
__Htext230                                     text230      000000
__Htext231                                     text231      000000
__Htext232                                     text232      000000
__Htext233                                     text233      000000
__Htext234                                     text234      000000
__Htext235                                     text235      000000
__Htext236                                     text236      000000
__Htext237                                     text237      000000
__Htext238                                     text238      000000
__Htext239                                     text239      000000
__Htext24                                      text24       000000
__Htext240                                     text240      000000
__Htext241                                     text241      000000
__Htext242                                     text242      000000
__Htext243                                     text243      000000
__Htext244                                     text244      000000
__Htext245                                     text245      000000
__Htext246                                     text246      000000
__Htext247                                     text247      000000
__Htext248                                     text248      000000
__Htext25                                      text25       000000
__Htext26                                      text26       000000
__Htext27                                      text27       000000
__Htext28                                      text28       000000
__Htext29                                      text29       000000
__Htext3                                       text3        000000
__Htext30                                      text30       000000
__Htext31                                      text31       000000
__Htext32                                      text32       000000
__Htext33                                      text33       000000
__Htext34                                      text34       000000
__Htext35                                      text35       000000
__Htext36                                      text36       000000
__Htext37                                      text37       000000
__Htext38                                      text38       000000
__Htext39                                      text39       000000
__Htext4                                       text4        000000
__Htext40                                      text40       000000
__Htext41                                      text41       000000
__Htext42                                      text42       000000
__Htext43                                      text43       000000
__Htext44                                      text44       000000
__Htext45                                      text45       000000
__Htext46                                      text46       000000
__Htext47                                      text47       000000
__Htext48                                      text48       000000
__Htext49                                      text49       000000
__Htext5                                       text5        000000
__Htext50                                      text50       000000
__Htext51                                      text51       000000
__Htext52                                      text52       000000
__Htext53                                      text53       000000
__Htext54                                      text54       000000
__Htext55                                      text55       000000
__Htext56                                      text56       000000
__Htext57                                      text57       000000
__Htext58                                      text58       000000
__Htext59                                      text59       000000
__Htext6                                       text6        000000
__Htext60                                      text60       000000
__Htext61                                      text61       000000
__Htext62                                      text62       000000
__Htext63                                      text63       000000
__Htext64                                      text64       000000
__Htext65                                      text65       000000
__Htext66                                      text66       000000
__Htext67                                      text67       000000
__Htext68                                      text68       000000
__Htext69                                      text69       000000
__Htext7                                       text7        000000
__Htext70                                      text70       000000
__Htext71                                      text71       000000
__Htext72                                      text72       000000
__Htext73                                      text73       000000
__Htext74                                      text74       000000
__Htext75                                      text75       000000
__Htext76                                      text76       000000
__Htext77                                      text77       000000
__Htext78                                      text78       000000
__Htext79                                      text79       000000
__Htext8                                       text8        000000
__Htext80                                      text80       000000
__Htext81                                      text81       000000
__Htext82                                      text82       000000
__Htext83                                      text83       000000
__Htext84                                      text84       000000
__Htext85                                      text85       000000
__Htext86                                      text86       000000
__Htext87                                      text87       000000
__Htext88                                      text88       000000
__Htext89                                      text89       000000
__Htext9                                       text9        000000
__Htext90                                      text90       000000
__Htext91                                      text91       000000
__Htext92                                      text92       000000
__Htext93                                      text93       000000
__Htext94                                      text94       000000
__Htext95                                      text95       000000
__Htext96                                      text96       000000
__Htext97                                      text97       000000
__Htext98                                      text98       000000
__Htext99                                      text99       000000
__LRAM                                         (abs)        000001
__L__absolute__                                __absolute__ 000000
__Labs1                                        abs1         000000
__Lbank10                                      bank10       000000
__Lbank11                                      bank11       000000
__Lbank12                                      bank12       000000
__Lbank13                                      bank13       000000
__Lbank14                                      bank14       000000
__Lbank15                                      bank15       000000
__Lbank16                                      bank16       000000
__Lbank17                                      bank17       000000
__Lbank18                                      bank18       000000
__Lbank19                                      bank19       000000
__Lbank20                                      bank20       000000
__Lbank21                                      bank21       000000
__Lbank22                                      bank22       000000
__Lbank23                                      bank23       000000
__Lbank24                                      bank24       000000
__Lbank25                                      bank25       000000
__Lbank26                                      bank26       000000
__Lbank27                                      bank27       000000
__Lbank28                                      bank28       000000
__Lbank29                                      bank29       000000
__Lbank30                                      bank30       000000
__Lbank31                                      bank31       000000
__Lbank32                                      bank32       000000
__Lbank33                                      bank33       000000
__Lbank34                                      bank34       000000
__Lbank35                                      bank35       000000
__Lbank36                                      bank36       000000
__Lbank5                                       bank5        000000
__Lbank6                                       bank6        000000
__Lbank7                                       bank7        000000
__Lbank8                                       bank8        000000
__Lbank9                                       bank9        000000
__Lbigbss                                      bigbss       000000
__Lbigdata                                     bigdata      000000
__Lbigram                                      bigram       000000
__Lbigsfr                                      bigsfr       000000
__Lbss                                         bss          000000
__LbssBANK10                                   bssBANK10    000000
__LbssBANK11                                   bssBANK11    000000
__LbssBANK6                                    bssBANK6     000000
__LbssBANK7                                    bssBANK7     000000
__LbssBANK8                                    bssBANK8     000000
__LbssBANK9                                    bssBANK9     000000
__LbssBIGRAM                                   bssBIGRAM    000000
__LbssCOMRAM                                   bssCOMRAM    000000
__Lcinit                                       cinit        000000
__Lclrtext                                     clrtext      000000
__Lcomram                                      comram       000000
__Lconfig                                      config       000000
__Lconst                                       const        000000
__LcstackBANK5                                 cstackBANK5  000000
__LcstackBANK6                                 cstackBANK6  000000
__LcstackBANK7                                 cstackBANK7  000000
__LcstackBANK8                                 cstackBANK8  000000
__LcstackCOMRAM                                cstackCOMRAM 000000
__Ldata                                        data         000000
__LdataBANK7                                   dataBANK7    000000
__LdataBANK8                                   dataBANK8    000000
__Leeprom_data                                 eeprom_data  000000
__Lfarbss                                      farbss       000000
__Lfardata                                     fardata      000000
__Lheap                                        heap         000000
__Libigdata                                    ibigdata     000000
__Lidata                                       idata        000000
__LidataBANK7                                  idataBANK7   000000
__LidataBANK8                                  idataBANK8   000000
__Lidloc                                       idloc        000000
__Lifardata                                    ifardata     000000
__Linit                                        init         000102
__Lintsave_regs                                intsave_regs 000000
__Lirdata                                      irdata       000000
__Livt0x8                                      ivt0x8       000008
__Lmediumconst                                 mediumconst  00DD0E
__LnvBANK6                                     nvBANK6      000000
__LnvBANK7                                     nvBANK7      000000
__LnvBANK8                                     nvBANK8      000000
__LnvFARRAM                                    nvFARRAM     000000
__Lnvbit                                       nvbit        000000
__Lnvrram                                      nvrram       000000
__Lparam                                       rparam       000000
__Lpowerup                                     powerup      000000
__Lram                                         ram          000000
__Lramtop                                      ramtop       002600
__Lrbit                                        rbit         000000
__Lrbss                                        rbss         000000
__Lrdata                                       rdata        000000
__Lreset_vec                                   reset_vec    000000
__Lrparam                                      rparam       000000
__Lsfr                                         sfr          000000
__Lsmallconst                                  smallconst   000000
__Lspace_0                                     (abs)        000000
__Lspace_1                                     (abs)        000000
__Lspace_2                                     (abs)        000000
__Lspace_4                                     (abs)        000000
__Lstack                                       stack        000000
__Lstruct                                      struct       000000
__Ltemp                                        temp         000000
__Ltext                                        text         000000
__Ltext0                                       text0        000000
__Ltext1                                       text1        000000
__Ltext10                                      text10       000000
__Ltext100                                     text100      000000
__Ltext101                                     text101      000000
__Ltext102                                     text102      000000
__Ltext103                                     text103      000000
__Ltext104                                     text104      000000
__Ltext105                                     text105      000000
__Ltext106                                     text106      000000
__Ltext107                                     text107      000000
__Ltext108                                     text108      000000
__Ltext109                                     text109      000000
__Ltext11                                      text11       000000
__Ltext110                                     text110      000000
__Ltext111                                     text111      000000
__Ltext112                                     text112      000000
__Ltext113                                     text113      000000
__Ltext114                                     text114      000000
__Ltext115                                     text115      000000
__Ltext116                                     text116      000000
__Ltext117                                     text117      000000
__Ltext118                                     text118      000000
__Ltext119                                     text119      000000
__Ltext12                                      text12       000000
__Ltext120                                     text120      000000
__Ltext121                                     text121      000000
__Ltext122                                     text122      000000
__Ltext123                                     text123      000000
__Ltext124                                     text124      000000
__Ltext125                                     text125      000000
__Ltext126                                     text126      000000
__Ltext127                                     text127      000000
__Ltext128                                     text128      000000
__Ltext129                                     text129      000000
__Ltext13                                      text13       000000
__Ltext130                                     text130      000000
__Ltext131                                     text131      000000
__Ltext132                                     text132      000000
__Ltext133                                     text133      000000
__Ltext134                                     text134      000000
__Ltext135                                     text135      000000
__Ltext136                                     text136      000000
__Ltext137                                     text137      000000
__Ltext138                                     text138      000000
__Ltext139                                     text139      000000
__Ltext14                                      text14       000000
__Ltext140                                     text140      000000
__Ltext141                                     text141      000000
__Ltext142                                     text142      000000
__Ltext143                                     text143      000000
__Ltext144                                     text144      000000
__Ltext145                                     text145      000000
__Ltext146                                     text146      000000
__Ltext147                                     text147      000000
__Ltext148                                     text148      000000
__Ltext149                                     text149      000000
__Ltext15                                      text15       000000
__Ltext150                                     text150      000000
__Ltext151                                     text151      000000
__Ltext152                                     text152      000000
__Ltext153                                     text153      000000
__Ltext154                                     text154      000000
__Ltext155                                     text155      000000
__Ltext156                                     text156      000000
__Ltext157                                     text157      000000
__Ltext158                                     text158      000000
__Ltext159                                     text159      000000
__Ltext16                                      text16       000000
__Ltext160                                     text160      000000
__Ltext161                                     text161      000000
__Ltext162                                     text162      000000
__Ltext163                                     text163      000000
__Ltext164                                     text164      000000
__Ltext165                                     text165      000000
__Ltext166                                     text166      000000
__Ltext167                                     text167      000000
__Ltext168                                     text168      000000
__Ltext169                                     text169      000000
__Ltext17                                      text17       000000
__Ltext170                                     text170      000000
__Ltext171                                     text171      000000
__Ltext172                                     text172      000000
__Ltext173                                     text173      000000
__Ltext174                                     text174      000000
__Ltext175                                     text175      000000
__Ltext176                                     text176      000000
__Ltext177                                     text177      000000
__Ltext178                                     text178      000000
__Ltext179                                     text179      000000
__Ltext18                                      text18       000000
__Ltext180                                     text180      000000
__Ltext181                                     text181      000000
__Ltext182                                     text182      000000
__Ltext183                                     text183      000000
__Ltext184                                     text184      000000
__Ltext185                                     text185      000000
__Ltext186                                     text186      000000
__Ltext187                                     text187      000000
__Ltext188                                     text188      000000
__Ltext189                                     text189      000000
__Ltext19                                      text19       000000
__Ltext190                                     text190      000000
__Ltext191                                     text191      000000
__Ltext192                                     text192      000000
__Ltext193                                     text193      000000
__Ltext194                                     text194      000000
__Ltext195                                     text195      000000
__Ltext196                                     text196      000000
__Ltext197                                     text197      000000
__Ltext198                                     text198      000000
__Ltext199                                     text199      000000
__Ltext2                                       text2        000000
__Ltext20                                      text20       000000
__Ltext200                                     text200      000000
__Ltext201                                     text201      000000
__Ltext202                                     text202      000000
__Ltext203                                     text203      000000
__Ltext204                                     text204      000000
__Ltext205                                     text205      000000
__Ltext206                                     text206      000000
__Ltext207                                     text207      000000
__Ltext208                                     text208      000000
__Ltext209                                     text209      000000
__Ltext21                                      text21       000000
__Ltext210                                     text210      000000
__Ltext211                                     text211      000000
__Ltext212                                     text212      000000
__Ltext213                                     text213      000000
__Ltext214                                     text214      000000
__Ltext215                                     text215      000000
__Ltext216                                     text216      000000
__Ltext217                                     text217      000000
__Ltext218                                     text218      000000
__Ltext219                                     text219      000000
__Ltext22                                      text22       000000
__Ltext220                                     text220      000000
__Ltext221                                     text221      000000
__Ltext222                                     text222      000000
__Ltext223                                     text223      000000
__Ltext224                                     text224      000000
__Ltext225                                     text225      000000
__Ltext226                                     text226      000000
__Ltext227                                     text227      000000
__Ltext228                                     text228      000000
__Ltext229                                     text229      000000
__Ltext23                                      text23       000000
__Ltext230                                     text230      000000
__Ltext231                                     text231      000000
__Ltext232                                     text232      000000
__Ltext233                                     text233      000000
__Ltext234                                     text234      000000
__Ltext235                                     text235      000000
__Ltext236                                     text236      000000
__Ltext237                                     text237      000000
__Ltext238                                     text238      000000
__Ltext239                                     text239      000000
__Ltext24                                      text24       000000
__Ltext240                                     text240      000000
__Ltext241                                     text241      000000
__Ltext242                                     text242      000000
__Ltext243                                     text243      000000
__Ltext244                                     text244      000000
__Ltext245                                     text245      000000
__Ltext246                                     text246      000000
__Ltext247                                     text247      000000
__Ltext248                                     text248      000000
__Ltext25                                      text25       000000
__Ltext26                                      text26       000000
__Ltext27                                      text27       000000
__Ltext28                                      text28       000000
__Ltext29                                      text29       000000
__Ltext3                                       text3        000000
__Ltext30                                      text30       000000
__Ltext31                                      text31       000000
__Ltext32                                      text32       000000
__Ltext33                                      text33       000000
__Ltext34                                      text34       000000
__Ltext35                                      text35       000000
__Ltext36                                      text36       000000
__Ltext37                                      text37       000000
__Ltext38                                      text38       000000
__Ltext39                                      text39       000000
__Ltext4                                       text4        000000
__Ltext40                                      text40       000000
__Ltext41                                      text41       000000
__Ltext42                                      text42       000000
__Ltext43                                      text43       000000
__Ltext44                                      text44       000000
__Ltext45                                      text45       000000
__Ltext46                                      text46       000000
__Ltext47                                      text47       000000
__Ltext48                                      text48       000000
__Ltext49                                      text49       000000
__Ltext5                                       text5        000000
__Ltext50                                      text50       000000
__Ltext51                                      text51       000000
__Ltext52                                      text52       000000
__Ltext53                                      text53       000000
__Ltext54                                      text54       000000
__Ltext55                                      text55       000000
__Ltext56                                      text56       000000
__Ltext57                                      text57       000000
__Ltext58                                      text58       000000
__Ltext59                                      text59       000000
__Ltext6                                       text6        000000
__Ltext60                                      text60       000000
__Ltext61                                      text61       000000
__Ltext62                                      text62       000000
__Ltext63                                      text63       000000
__Ltext64                                      text64       000000
__Ltext65                                      text65       000000
__Ltext66                                      text66       000000
__Ltext67                                      text67       000000
__Ltext68                                      text68       000000
__Ltext69                                      text69       000000
__Ltext7                                       text7        000000
__Ltext70                                      text70       000000
__Ltext71                                      text71       000000
__Ltext72                                      text72       000000
__Ltext73                                      text73       000000
__Ltext74                                      text74       000000
__Ltext75                                      text75       000000
__Ltext76                                      text76       000000
__Ltext77                                      text77       000000
__Ltext78                                      text78       000000
__Ltext79                                      text79       000000
__Ltext8                                       text8        000000
__Ltext80                                      text80       000000
__Ltext81                                      text81       000000
__Ltext82                                      text82       000000
__Ltext83                                      text83       000000
__Ltext84                                      text84       000000
__Ltext85                                      text85       000000
__Ltext86                                      text86       000000
__Ltext87                                      text87       000000
__Ltext88                                      text88       000000
__Ltext89                                      text89       000000
__Ltext9                                       text9        000000
__Ltext90                                      text90       000000
__Ltext91                                      text91       000000
__Ltext92                                      text92       000000
__Ltext93                                      text93       000000
__Ltext94                                      text94       000000
__Ltext95                                      text95       000000
__Ltext96                                      text96       000000
__Ltext97                                      text97       000000
__Ltext98                                      text98       000000
__Ltext99                                      text99       000000
__S0                                           (abs)        020000
__S1                                           (abs)        001CFC
__S4                                           (abs)        000000
__S5                                           (abs)        000000
___SDCard_command_r1                           text229      003842
___SDCard_command_r1@argument                  cstackCOMRAM 00051F
___SDCard_command_r1@buf                       cstackCOMRAM 000526
___SDCard_command_r1@command                   cstackCOMRAM 000525
___SDCard_command_r1@r1                        cstackCOMRAM 000523
___SDCard_command_r1@response                  cstackCOMRAM 00052C
___SDCard_command_r1@spi                       cstackCOMRAM 00052D
___SDCard_crc16                                text228      003316
___SDCard_crc16@buf                            cstackCOMRAM 00050A
___SDCard_crc16@count                          cstackCOMRAM 00050C
___SDCard_crc16@crc                            cstackCOMRAM 000508
___SDCard_crc16@endp                           cstackCOMRAM 000511
___SDCard_crc16@p                              cstackCOMRAM 000513
___SDCard_wait_response                        text230      0052C0
___SDCard_wait_response@attempts               cstackCOMRAM 000519
___SDCard_wait_response@no_response            cstackCOMRAM 00051B
___SDCard_wait_response@response               cstackCOMRAM 00051E
___SDCard_wait_response@spi                    cstackCOMRAM 00051C
___aldiv                                       text223      001D12
___aldiv@counter                               cstackCOMRAM 000510
___aldiv@dividend                              cstackCOMRAM 000508
___aldiv@divisor                               cstackCOMRAM 00050C
___aldiv@quotient                              cstackCOMRAM 000512
___aldiv@sign                                  cstackCOMRAM 000511
___almod                                       text222      0028FC
___almod@counter                               cstackCOMRAM 000510
___almod@dividend                              cstackCOMRAM 000508
___almod@divisor                               cstackCOMRAM 00050C
___almod@sign                                  cstackCOMRAM 000511
___assert_fail                                 text133      005622
___assert_fail@expr                            cstackBANK5  0005CE
___assert_fail@file                            cstackBANK5  0005D0
___assert_fail@func                            cstackBANK5  0005D4
___assert_fail@line                            cstackBANK5  0005D2
___con_flush_buffer                            text118      004B88
___fladd                                       text211      0178B8
___fladd@a                                     cstackCOMRAM 00050C
___fladd@aexp                                  cstackCOMRAM 000515
___fladd@b                                     cstackCOMRAM 000508
___fladd@bexp                                  cstackCOMRAM 000516
___fladd@grs                                   cstackCOMRAM 000517
___fladd@signs                                 cstackCOMRAM 000514
___fldiv                                       text216      01A3D8
___fldiv@a                                     cstackCOMRAM 000526
___fldiv@aexp                                  cstackCOMRAM 00053A
___fldiv@b                                     cstackCOMRAM 000522
___fldiv@bexp                                  cstackCOMRAM 000539
___fldiv@grs                                   cstackCOMRAM 000535
___fldiv@new_exp                               cstackCOMRAM 000533
___fldiv@rem                                   cstackCOMRAM 00052E
___fldiv@sign                                  cstackCOMRAM 000532
___fleq                                        text215      0039A2
___fleq@ff1                                    cstackCOMRAM 000508
___fleq@ff2                                    cstackCOMRAM 00050C
___flge                                        text214      001F24
___flge@ff1                                    cstackCOMRAM 000521
___flge@ff2                                    cstackCOMRAM 000525
___flmul                                       text213      019810
___flmul@a                                     cstackCOMRAM 00050C
___flmul@aexp                                  cstackCOMRAM 000515
___flmul@b                                     cstackCOMRAM 000508
___flmul@bexp                                  cstackCOMRAM 00051A
___flmul@grs                                   cstackCOMRAM 000516
___flmul@prod                                  cstackCOMRAM 00051B
___flmul@sign                                  cstackCOMRAM 000514
___flmul@temp                                  cstackCOMRAM 00051F
___flneg                                       text212      0055EA
___flneg@f1                                    cstackCOMRAM 000508
___flsub                                       text210      00527A
___flsub@a                                     cstackCOMRAM 000525
___flsub@b                                     cstackCOMRAM 000521
___fltol                                       text209      001E1E
___fltol@exp1                                  cstackCOMRAM 000511
___fltol@f1                                    cstackCOMRAM 000508
___fltol@sign1                                 cstackCOMRAM 000510
___fpclassifyf                                 text208      00232C
___fpclassifyf@F465                            bssBANK7     000709
___fpclassifyf@e                               cstackCOMRAM 000510
___fpclassifyf@u                               cstackCOMRAM 000512
___fpclassifyf@x                               cstackCOMRAM 000508
___funcs_on_exit                               text136      00592E
___heap_hi                                     (abs)        000000
___heap_lo                                     (abs)        000000
___inthi_sp                                    stack        000000
___intlo_sp                                    stack        000000
___lldiv                                       text197      003A4C
___lldiv@counter                               cstackCOMRAM 000514
___lldiv@dividend                              cstackCOMRAM 000508
___lldiv@divisor                               cstackCOMRAM 00050C
___lldiv@quotient                              cstackCOMRAM 000510
___llmod                                       text196      003E72
___llmod@counter                               cstackCOMRAM 000510
___llmod@dividend                              cstackCOMRAM 000508
___llmod@divisor                               cstackCOMRAM 00050C
___lmul                                        text242      004922
___lmul@multiplicand                           cstackCOMRAM 00050C
___lmul@multiplier                             cstackCOMRAM 000508
___lmul@product                                cstackCOMRAM 000510
___lwmod                                       text148      004BEC
___lwmod@counter                               cstackCOMRAM 00050C
___lwmod@dividend                              cstackCOMRAM 000508
___lwmod@divisor                               cstackCOMRAM 00050A
___memcpy_on_target                            text109      001640
___memcpy_on_target@bank                       cstackBANK6  000608
___memcpy_on_target@buf                        cstackBANK6  000604
___memcpy_on_target@dest                       cstackBANK6  000600
___memcpy_on_target@len                        cstackBANK6  000606
___memcpy_on_target@param_blocks               cstackBANK6  00060F
___memcpy_on_target@params                     cstackBANK6  00060A
___memcpy_on_target@src                        cstackBANK6  000602
___param_bank                                  (abs)        000000
___read_from_sram                              text115      004310
___read_from_sram@buf                          cstackCOMRAM 00051E
___read_from_sram@len                          cstackCOMRAM 000520
___read_from_sram@src                          cstackCOMRAM 00051A
___read_sram_regions                           text140      000B62
___read_sram_regions@bank                      cstackCOMRAM 00051E
___read_sram_regions@i                         cstackCOMRAM 000528
___read_sram_regions@n                         cstackCOMRAM 00051C
___read_sram_regions@regions                   cstackCOMRAM 00051A
___rparam_used                                 (abs)        000001
___sp                                          stack        000000
___strtoxl                                     text78       018234
___strtoxl@a                                   cstackCOMRAM 00052B
___strtoxl@base                                cstackCOMRAM 000519
___strtoxl@c                                   cstackCOMRAM 000531
___strtoxl@conv_done                           cstackCOMRAM 000524
___strtoxl@cp                                  cstackCOMRAM 00052F
___strtoxl@endptr                              cstackCOMRAM 000517
___strtoxl@is_signed                           cstackCOMRAM 00051B
___strtoxl@limit                               cstackCOMRAM 000525
___strtoxl@prev_a                              cstackCOMRAM 000520
___strtoxl@s                                   cstackCOMRAM 000515
___strtoxl@sign                                cstackCOMRAM 000529
___strtoxl@skip                                cstackCOMRAM 00052A
___wmul                                        text201      00583E
___wmul@multiplicand                           cstackCOMRAM 00050A
___wmul@multiplier                             cstackCOMRAM 000508
___wmul@product                                cstackCOMRAM 00050C
___write_sram_regions                          text138      0009F0
___write_sram_regions@bank                     cstackCOMRAM 00051E
___write_sram_regions@i                        cstackCOMRAM 000528
___write_sram_regions@n                        cstackCOMRAM 00051C
___write_sram_regions@regions                  cstackCOMRAM 00051A
___write_to_sram                               text113      004290
___write_to_sram@buf                           cstackCOMRAM 00051E
___write_to_sram@dest                          cstackCOMRAM 00051A
___write_to_sram@len                           cstackCOMRAM 000520
___xxtofl                                      text243      01E17A
___xxtofl@arg                                  cstackCOMRAM 00051E
___xxtofl@exp                                  cstackCOMRAM 00051D
___xxtofl@sign                                 cstackCOMRAM 00051C
___xxtofl@val                                  cstackCOMRAM 000514
__accesstop                                    (abs)        000560
__activetblptr                                 (abs)        000003
__end_of_DbcTbl                                mediumconst  00DD5F
__end_of_Default_ISR                           text244      00501E
__end_of_SDCard_command                        text8        004508
__end_of_SDCard_crc                            text234      00410C
__end_of_SDCard_debug                          text65       005980
__end_of_SDCard_end_transaction                text235      0057C8
__end_of_SDCard_init                           text5        018234
__end_of_SDCard_read512                        text185      01A3D8
__end_of_SDCard_write512                       text177      0193E6
__end_of_SPI_SD_begin                          text7        005688
__end_of_SPI_SD_begin_transaction              text233      0058EE
__end_of_SPI_SD_configure                      text6        001640
__end_of_SPI_SD_dummy_clocks                   text238      004DD6
__end_of_SPI_SD_end_transaction                text236      005910
__end_of_SPI_SD_receive                        text232      01B1BA
__end_of_SPI_SD_receive_byte                   text231      0058CC
__end_of_SPI_SD_select                         text237      005A2C
__end_of_SPI_SD_send                           text241      003DE8
__end_of__Exit                                 text137      005B5C
__end_of___SDCard_command_r1                   text229      0038F8
__end_of___SDCard_crc16                        text228      0033DA
__end_of___SDCard_wait_response                text230      005306
__end_of___aldiv                               text223      001E1E
__end_of___almod                               text222      0029E8
__end_of___assert_fail                         text133      005656
__end_of___con_flush_buffer                    text118      004BEC
__end_of___fladd                               text211      017D78
__end_of___fldiv                               text216      01A772
__end_of___fleq                                text215      003A4C
__end_of___flge                                text214      002028
__end_of___flmul                               text213      019C3A
__end_of___flneg                               text212      005622
__end_of___flsub                               text210      0052C0
__end_of___fltol                               text209      001F24
__end_of___fpclassifyf                         text208      00242A
__end_of___funcs_on_exit                       text136      00594C
__end_of___lldiv                               text197      003AF0
__end_of___llmod                               text196      003EFA
__end_of___lmul                                text242      00498C
__end_of___lwmod                               text148      004C50
__end_of___memcpy_on_target                    text109      001774
__end_of___read_from_sram                      text115      004390
__end_of___read_sram_regions                   text140      000CD4
__end_of___strtoxl                             text78       0186C8
__end_of___wmul                                text201      005864
__end_of___write_sram_regions                  text138      000B62
__end_of___write_to_sram                       text113      004310
__end_of___xxtofl                              text243      01E32E
__end_of__initialization                       cinit        0030AE
__end_of_abort                                 text134      005B24
__end_of_abs                                   text221      005454
__end_of_acquire_bus                           text240      004E84
__end_of_bank_select_callback                  text67       00418E
__end_of_board_init                            text9        003F80
__end_of_bus_master                            text131      00583E
__end_of_check_fs                              text173      01B4A6
__end_of_clst2sect                             text156      003180
__end_of_con_flush_buffer                      text227      0056EC
__end_of_cpm_disk_read                         text70       01E17A
__end_of_cpm_trsect_from_lba                   text69       01EB68
__end_of_cpm_trsect_to_lba                     text68       001BFC
__end_of_create_chain                          text153      016982
__end_of_create_name                           text24       01AB08
__end_of_ctoa                                  text224      002E4C
__end_of_dbc_1st                               text27       003C2A
__end_of_dbc_2nd                               text26       002D78
__end_of_dir_alloc                             text29       001508
__end_of_dir_clear                             text32       0013BA
__end_of_dir_find                              text23       000416
__end_of_dir_next                              text31       019810
__end_of_dir_read                              text17       01E682
__end_of_dir_register                          text28       002C98
__end_of_dir_sdi                               text30       01AE92
__end_of_disas_op                              text74       01B9FE
__end_of_disas_ops                             text73       01E9CA
__end_of_disas_z80                             mediumconst  00E16B
__end_of_disk_init                             text168      004FCC
__end_of_disk_initialize                       text183      01B76E
__end_of_disk_ioctl                            text162      0036D2
__end_of_disk_read                             text178      01FCF4
__end_of_disk_status                           text182      004210
__end_of_disk_write                            text176      01FB62
__end_of_dma_helper_z80                        mediumconst  00E51A
__end_of_dma_read_from_sram                    text85       01F372
__end_of_dma_write_to_sram                     text83       01F1D8
__end_of_dtoa                                  text217      01CA32
__end_of_edit_line                             text146      018F9A
__end_of_efgtoa                                text203      012C06
__end_of_emuz80_47q_bus_master                 text132      004F7A
__end_of_emuz80_47q_clear_io_event             text130      005B6E
__end_of_emuz80_47q_io_event                   text129      005A14
__end_of_emuz80_47q_name                       text167      005B38
__end_of_emuz80_47q_set_bank_pins              text144      020000
__end_of_emuz80_47q_set_wait_pin               text120      00599A
__end_of_emuz80_47q_setup_addrbus              text143      00571A
__end_of_emuz80_47q_start_z80                  text107      00349C
__end_of_emuz80_47q_sys_init                   text3        002620
__end_of_emuz80_47q_wait_io_event              text128      005888
__end_of_emuz80_common_addr_l_pins             text127      005B6A
__end_of_emuz80_common_clock_op_hook           text166      01E4DE
__end_of_emuz80_common_data_pins               text126      005B66
__end_of_emuz80_common_high_addr_mask          text145      005AA8
__end_of_emuz80_common_init                    text10       0028FC
__end_of_emuz80_common_ioreq_pin               text125      0059FC
__end_of_emuz80_common_low_addr_mask           text108      005B40
__end_of_emuz80_common_rd_pin                  text124      0059E4
__end_of_emuz80_common_read_from_sram          text142      003618
__end_of_emuz80_common_set_busrq_pin           text123      005A84
__end_of_emuz80_common_set_data_dir            text141      005B50
__end_of_emuz80_common_set_data_pins           text122      005B48
__end_of_emuz80_common_set_reset_pin           text91       005A58
__end_of_emuz80_common_set_wait_pin            text121      005A6E
__end_of_emuz80_common_start_z80               text106      00534A
__end_of_emuz80_common_sys_init                text2        00440E
__end_of_emuz80_common_wait_for_programmer     text4        004ED6
__end_of_emuz80_common_write_to_sram           text139      00378A
__end_of_exit                                  text135      005A96
__end_of_f_closedir                            text33       005542
__end_of_f_lseek                               text72       014748
__end_of_f_mount                               text169      00271A
__end_of_f_open                                text19       014F30
__end_of_f_opendir                             text18       01FFFE
__end_of_f_read                                text71       015DBE
__end_of_f_readdir                             text15       002BB6
__end_of_f_sync                                text157      01CE64
__end_of_f_write                               text152      013F46
__end_of_fatdisk_debug                         text64       005966
__end_of_find_volume                           text172      01D87C
__end_of_floorf                                text207      01D288
__end_of_follow_path                           text21       01CC4E
__end_of_fputc                                 text225      003316
__end_of_fputs                                 text220      0053D2
__end_of_get_fat                               text155      01A03A
__end_of_get_fattime                           text165      005ABA
__end_of_get_fileinfo                          text16       01D688
__end_of_get_ldnumber                          text171      01ED06
__end_of_getch_buffered                        text147      003E72
__end_of_hw_ctrl_read                          text151      005B62
__end_of_hw_ctrl_write                         text150      003D54
__end_of_install_nmi_vector                    text97       0039A2
__end_of_install_rst_vector                    text96       00527A
__end_of_install_trampoline                    text102      004584
__end_of_install_trampoline_cleanup            text89       001AE0
__end_of_install_trampoline_nmi                text100      004088
__end_of_io_handle                             text36       011324
__end_of_io_init                               text35       005B00
__end_of_io_invoke_target_cpu                  text110      01DC32
__end_of_io_invoke_target_cpu_prepare          text92       000292
__end_of_io_invoke_target_cpu_teardown         text87       00212A
__end_of_io_set_interrupt_data                 text95       005B18
__end_of_io_stat                               text119      005B2E
__end_of_io_wait_write                         text116      016EAE
__end_of_isalnum                               text81       004D78
__end_of_isalpha                               text194      0055EA
__end_of_isdigit                               text80       005746
__end_of_islower                               text192      005772
__end_of_isspace                               text79       005234
__end_of_isupper                               text193      00579E
__end_of_labs                                  text206      004ABE
__end_of_ld_clust                              text22       004290
__end_of_ld_dword                              text181      003842
__end_of_ld_word                               text180      00557A
__end_of_main                                  text0        01FE80
__end_of_mem_init                              text34       01D490
__end_of_memcmp                                text179      002F1A
__end_of_memcpy                                text205      0050BE
__end_of_memset                                text161      00087C
__end_of_menu_select                           text13       0173B8
__end_of_mmu_bank_config                       text149      00550A
__end_of_mmu_bank_select                       text66       001D12
__end_of_mon_assert_interrupt                  text94       0059CC
__end_of_mon_chartoval                         text82       01DE00
__end_of_mon_cleanup                           text90       002AD0
__end_of_mon_cmd_breakpoint                    text58       000706
__end_of_mon_cmd_clearbreakpoint               text57       0045FE
__end_of_mon_cmd_continue                      text56       005B0C
__end_of_mon_cmd_disassemble                   text55       01C38C
__end_of_mon_cmd_diskread                      text54       018B38
__end_of_mon_cmd_dump                          text53       01C5CE
__end_of_mon_cmd_help                          text46       01E826
__end_of_mon_cmd_jump                          text52       003CC0
__end_of_mon_cmd_reset                         text51       005AD8
__end_of_mon_cmd_sdread                        text50       01DFBE
__end_of_mon_cmd_set                           text49       0156AA
__end_of_mon_cmd_status                        text47       01BEDC
__end_of_mon_cmd_step                          text48       0046EE
__end_of_mon_cmd_write                         text59       000E40
__end_of_mon_cmds                              mediumconst  00E47F
__end_of_mon_enter                             text105      0048B6
__end_of_mon_enter_nmi                         text103      004766
__end_of_mon_get_hexval                        text44       000590
__end_of_mon_get_str                           text42       0019C0
__end_of_mon_init                              text12       005ACA
__end_of_mon_leave                             text88       00515A
__end_of_mon_parse                             text41       0163D2
__end_of_mon_prepare                           text101      005AF4
__end_of_mon_prepare_nmi                       text99       005AE6
__end_of_mon_prompt                            text40       000FAA
__end_of_mon_remove_space                      text45       005492
__end_of_mon_remove_trailing_space             text43       004F28
__end_of_mon_setup                             text93       005B56
__end_of_mon_show_registers                    text60       01C13E
__end_of_mon_start                             text39       01F03E
__end_of_mon_strtoval                          text76       01DA60
__end_of_mon_use_zeropage                      text111      0054D0
__end_of_mount_volume                          text170      0136CA
__end_of_move_window                           text174      00324C
__end_of_num_drives                            mediumconst  00DD67
__end_of_otoa                                  text202      01F6A4
__end_of_pad                                   text218      00355E
__end_of_printf                                text187      005818
__end_of_put_fat                               text154      0178B8
__end_of_putch                                 text226      0059B4
__end_of_putch_buffered                        text117      004B88
__end_of_read_debug_settings                   text63       00232C
__end_of_read_from_sram_low_addr               text86       01F9D0
__end_of_read_prec_or_width                    text200      002FE8
__end_of_reinstall_trampoline                  text104      003B8E
__end_of_release_bus                           text239      005414
__end_of_remove_chain                          text20       01C800
__end_of_rom                                   mediumconst  00E314
__end_of_save_zero_page                        text114      0047D8
__end_of_sprintf                               text75       00506E
__end_of_st_clust                              text163      0051A6
__end_of_st_dword                              text160      004922
__end_of_st_word                               text164      0057F0
__end_of_start_z80                             text11       00592E
__end_of_stoa                                  text199      01F50C
__end_of_strchr                                text25       004E30
__end_of_strcmp                                text14       004676
__end_of_strcpy                                text204      00538E
__end_of_strlen                                text219      00510E
__end_of_strncmp                               text198      0018A0
__end_of_strtoul                               text77       0056BA
__end_of_sync_fs                               text159      01D076
__end_of_sync_window                           text175      01EEA4
__end_of_sys_init                              text1        0058AA
__end_of_toupper                               text191      0055B2
__end_of_trampoline                            mediumconst  00E3CB
__end_of_trampoline_cleanup                    mediumconst  00E4FE
__end_of_trampoline_cleanup_work               mediumconst  00DD63
__end_of_trampoline_nmi                        mediumconst  00E4BF
__end_of_trampoline_nmi_work                   mediumconst  00DD61
__end_of_trampoline_work                       mediumconst  00DD65
__end_of_try_to_invoke_monitor                 text38       002526
__end_of_ungetch                               text246      004B24
__end_of_uninstall_nmi_vector                  text98       0049F2
__end_of_uninstall_trampoline                  text112      004A58
__end_of_util_addrdump                         text186      0009F0
__end_of_util_hexdump                          text184      00110E
__end_of_util_hexdump_sum                      text37       004004
__end_of_util_stricmp                          text62       00448C
__end_of_utoa                                  text195      00126A
__end_of_validate                              text158      00222C
__end_of_vfpfcnvrt                             text189      01213C
__end_of_vfprintf                              text188      004848
__end_of_write_debug_settings                  text61       002810
__end_of_write_to_sram_low_addr                text84       01F83A
__end_of_xtoa                                  text190      01BC74
__end_ofi2___con_flush_buffer                  text245      004CB4
__end_ofi2___lwmod                             text247      004D18
__end_ofio_invoke_target_cpu_prepare@dummy_rom mediumconst  00E524
__end_ofmon_cleanup@reti                       mediumconst  00E52A
__end_ofmon_cleanup@retn                       mediumconst  00E527
__end_ofmon_cmd_set@variables                  mediumconst  00DD55
__initialization                               cinit        002FE8
__mediumconst                                  mediumconst  00DD0E
__pbssBANK10                                   bssBANK10    000A00
__pbssBANK11                                   bssBANK11    000B00
__pbssBANK6                                    bssBANK6     0006E5
__pbssBANK7                                    bssBANK7     000700
__pbssBANK8                                    bssBANK8     000800
__pbssBANK9                                    bssBANK9     000900
__pbssBIGRAM                                   bssBIGRAM    000C00
__pbssCOMRAM                                   bssCOMRAM    000552
__pcinit                                       cinit        002FE8
__pcstackBANK5                                 cstackBANK5  000560
__pcstackBANK6                                 cstackBANK6  000600
__pcstackBANK7                                 cstackBANK7  000780
__pcstackBANK8                                 cstackBANK8  0008DD
__pcstackCOMRAM                                cstackCOMRAM 000501
__pdataBANK7                                   dataBANK7    0007E9
__pdataBANK8                                   dataBANK8    000872
__pidataBANK7                                  idataBANK7   005A2C
__pidataBANK8                                  idataBANK8   0051A6
__pivt0x8                                      ivt0x8       000008
__pmediumconst                                 mediumconst  00DD0E
__pnvBANK6                                     nvBANK6      0006EF
__pnvBANK7                                     nvBANK7      0007C5
__pnvBANK8                                     nvBANK8      0008B9
__ptext0                                       text0        01FCF4
__ptext1                                       text1        005888
__ptext10                                      text10       002810
__ptext100                                     text100      004004
__ptext101                                     text101      005AE6
__ptext102                                     text102      004508
__ptext103                                     text103      0046EE
__ptext104                                     text104      003AF0
__ptext105                                     text105      004848
__ptext106                                     text106      005306
__ptext107                                     text107      0033DA
__ptext108                                     text108      005B38
__ptext109                                     text109      001640
__ptext11                                      text11       005910
__ptext110                                     text110      01DA60
__ptext111                                     text111      005492
__ptext112                                     text112      0049F2
__ptext113                                     text113      004290
__ptext114                                     text114      004766
__ptext115                                     text115      004310
__ptext116                                     text116      016982
__ptext117                                     text117      004B24
__ptext118                                     text118      004B88
__ptext119                                     text119      005B24
__ptext12                                      text12       005ABA
__ptext120                                     text120      005980
__ptext121                                     text121      005A58
__ptext122                                     text122      005B40
__ptext123                                     text123      005A6E
__ptext124                                     text124      0059CC
__ptext125                                     text125      0059E4
__ptext126                                     text126      005B62
__ptext127                                     text127      005B66
__ptext128                                     text128      005864
__ptext129                                     text129      0059FC
__ptext13                                      text13       016EAE
__ptext130                                     text130      005B6A
__ptext131                                     text131      005818
__ptext132                                     text132      004F28
__ptext133                                     text133      005622
__ptext134                                     text134      005B18
__ptext135                                     text135      005A84
__ptext136                                     text136      00592E
__ptext137                                     text137      005B56
__ptext138                                     text138      0009F0
__ptext139                                     text139      0036D2
__ptext14                                      text14       0045FE
__ptext140                                     text140      000B62
__ptext141                                     text141      005B48
__ptext142                                     text142      00355E
__ptext143                                     text143      0056EC
__ptext144                                     text144      01FFFE
__ptext145                                     text145      005A96
__ptext146                                     text146      018B38
__ptext147                                     text147      003DE8
__ptext148                                     text148      004BEC
__ptext149                                     text149      0054D0
__ptext15                                      text15       002AD0
__ptext150                                     text150      003CC0
__ptext151                                     text151      005B5C
__ptext152                                     text152      0136CA
__ptext153                                     text153      0163D2
__ptext154                                     text154      0173B8
__ptext155                                     text155      019C3A
__ptext156                                     text156      0030B4
__ptext157                                     text157      01CC4E
__ptext158                                     text158      00212A
__ptext159                                     text159      01CE64
__ptext16                                      text16       01D490
__ptext160                                     text160      0048B6
__ptext161                                     text161      000706
__ptext162                                     text162      003618
__ptext163                                     text163      00515A
__ptext164                                     text164      0057C8
__ptext165                                     text165      005AA8
__ptext166                                     text166      01E32E
__ptext167                                     text167      005B2E
__ptext168                                     text168      004F7A
__ptext169                                     text169      002620
__ptext17                                      text17       01E4DE
__ptext170                                     text170      012C06
__ptext171                                     text171      01EB68
__ptext172                                     text172      01D688
__ptext173                                     text173      01B1BA
__ptext174                                     text174      003180
__ptext175                                     text175      01ED06
__ptext176                                     text176      01F9D0
__ptext177                                     text177      018F9A
__ptext178                                     text178      01FB62
__ptext179                                     text179      002E4C
__ptext18                                      text18       01FE80
__ptext180                                     text180      005542
__ptext181                                     text181      00378A
__ptext182                                     text182      00418E
__ptext183                                     text183      01B4A6
__ptext184                                     text184      000FAA
__ptext185                                     text185      01A03A
__ptext186                                     text186      00087C
__ptext187                                     text187      0057F0
__ptext188                                     text188      0047D8
__ptext189                                     text189      011324
__ptext19                                      text19       014748
__ptext190                                     text190      01B9FE
__ptext191                                     text191      00557A
__ptext192                                     text192      005746
__ptext193                                     text193      005772
__ptext194                                     text194      0055B2
__ptext195                                     text195      00110E
__ptext196                                     text196      003E72
__ptext197                                     text197      003A4C
__ptext198                                     text198      001774
__ptext199                                     text199      01F372
__ptext2                                       text2        004390
__ptext20                                      text20       01C5CE
__ptext200                                     text200      002F1A
__ptext201                                     text201      00583E
__ptext202                                     text202      01F50C
__ptext203                                     text203      01213C
__ptext204                                     text204      00534A
__ptext205                                     text205      00506E
__ptext206                                     text206      004A58
__ptext207                                     text207      01D076
__ptext208                                     text208      00232C
__ptext209                                     text209      001E1E
__ptext21                                      text21       01CA32
__ptext210                                     text210      00527A
__ptext211                                     text211      0178B8
__ptext212                                     text212      0055EA
__ptext213                                     text213      019810
__ptext214                                     text214      001F24
__ptext215                                     text215      0039A2
__ptext216                                     text216      01A3D8
__ptext217                                     text217      01C800
__ptext218                                     text218      00349C
__ptext219                                     text219      0050BE
__ptext22                                      text22       004210
__ptext220                                     text220      00538E
__ptext221                                     text221      005414
__ptext222                                     text222      0028FC
__ptext223                                     text223      001D12
__ptext224                                     text224      002D78
__ptext225                                     text225      00324C
__ptext226                                     text226      00599A
__ptext227                                     text227      0056BA
__ptext228                                     text228      003316
__ptext229                                     text229      003842
__ptext23                                      text23       000292
__ptext230                                     text230      0052C0
__ptext231                                     text231      0058AA
__ptext232                                     text232      01AE92
__ptext233                                     text233      0058CC
__ptext234                                     text234      004088
__ptext235                                     text235      00579E
__ptext236                                     text236      0058EE
__ptext237                                     text237      005A14
__ptext238                                     text238      004D78
__ptext239                                     text239      0053D2
__ptext24                                      text24       01A772
__ptext240                                     text240      004E30
__ptext241                                     text241      003D54
__ptext242                                     text242      004922
__ptext243                                     text243      01E17A
__ptext244                                     text244      004FCC
__ptext245                                     text245      004C50
__ptext246                                     text246      004ABE
__ptext247                                     text247      004CB4
__ptext248                                     text248      000000
__ptext25                                      text25       004DD6
__ptext26                                      text26       002C98
__ptext27                                      text27       003B8E
__ptext28                                      text28       002BB6
__ptext29                                      text29       0013BA
__ptext3                                       text3        002526
__ptext30                                      text30       01AB08
__ptext31                                      text31       0193E6
__ptext32                                      text32       00126A
__ptext33                                      text33       00550A
__ptext34                                      text34       01D288
__ptext35                                      text35       005AF4
__ptext36                                      text36       010000
__ptext37                                      text37       003F80
__ptext38                                      text38       00242A
__ptext39                                      text39       01EEA4
__ptext4                                       text4        004E84
__ptext40                                      text40       000E40
__ptext41                                      text41       015DBE
__ptext42                                      text42       0018A0
__ptext43                                      text43       004ED6
__ptext44                                      text44       000416
__ptext45                                      text45       005454
__ptext46                                      text46       01E682
__ptext47                                      text47       01BC74
__ptext48                                      text48       004676
__ptext49                                      text49       014F30
__ptext5                                       text5        017D78
__ptext50                                      text50       01DE00
__ptext51                                      text51       005ACA
__ptext52                                      text52       003C2A
__ptext53                                      text53       01C38C
__ptext54                                      text54       0186C8
__ptext55                                      text55       01C13E
__ptext56                                      text56       005B00
__ptext57                                      text57       004584
__ptext58                                      text58       000590
__ptext59                                      text59       000CD4
__ptext6                                       text6        001508
__ptext60                                      text60       01BEDC
__ptext61                                      text61       00271A
__ptext62                                      text62       00440E
__ptext63                                      text63       00222C
__ptext64                                      text64       00594C
__ptext65                                      text65       005966
__ptext66                                      text66       001BFC
__ptext67                                      text67       00410C
__ptext68                                      text68       001AE0
__ptext69                                      text69       01E9CA
__ptext7                                       text7        005656
__ptext70                                      text70       01DFBE
__ptext71                                      text71       0156AA
__ptext72                                      text72       013F46
__ptext73                                      text73       01E826
__ptext74                                      text74       01B76E
__ptext75                                      text75       00501E
__ptext76                                      text76       01D87C
__ptext77                                      text77       005688
__ptext78                                      text78       018234
__ptext79                                      text79       0051EE
__ptext8                                       text8        00448C
__ptext80                                      text80       00571A
__ptext81                                      text81       004D18
__ptext82                                      text82       01DC32
__ptext83                                      text83       01F03E
__ptext84                                      text84       01F6A4
__ptext85                                      text85       01F1D8
__ptext86                                      text86       01F83A
__ptext87                                      text87       002028
__ptext88                                      text88       00510E
__ptext89                                      text89       0019C0
__ptext9                                       text9        003EFA
__ptext90                                      text90       0029E8
__ptext91                                      text91       005A42
__ptext92                                      text92       000106
__ptext93                                      text93       005B50
__ptext94                                      text94       0059B4
__ptext95                                      text95       005B0C
__ptext96                                      text96       005234
__ptext97                                      text97       0038F8
__ptext98                                      text98       00498C
__ptext99                                      text99       005AD8
__ramtop                                       ramtop       002600
__smallconst                                   smallconst   000000
_abort                                         text134      005B18
_abs                                           text221      005414
_acquire_bus                                   text240      004E30
_bank_select_callback                          text67       00410C
_board_addr_l_pins_hook                        nvBANK8      0008CE
_board_bus_master_hook                         nvBANK8      0008BC
_board_clear_io_event_hook                     nvBANK7      0007C5
_board_clock_op_hook                           nvBANK7      0007E0
_board_data_pins_hook                          nvBANK8      0008C8
_board_high_addr_mask_hook                     nvBANK8      0008D4
_board_init                                    text9        003EFA
_board_io_event_hook                           nvBANK7      0007C8
_board_ioreq_pin_hook                          nvBANK7      0007D7
_board_low_addr_mask_hook                      nvBANK8      0008D1
_board_memrq_pin_hook                          nvBANK8      0008C5
_board_name_hook                               nvBANK8      0008BF
_board_rd_pin_hook                             nvBANK6      0006EF
_board_read_from_sram_hook                     nvBANK7      0007E3
_board_read_sram_regions_hook                  bssBANK8     00081E
_board_set_addr_l_pins_hook                    nvBANK8      0008CB
_board_set_bank_pins_hook                      nvBANK7      0007CE
_board_set_busrq_pin_hook                      nvBANK7      0007D4
_board_set_data_dir_hook                       nvBANK7      0007DA
_board_set_data_pins_hook                      nvBANK7      0007DD
_board_set_int_pin_hook                        bssBANK8     000815
_board_set_nmi_pin_hook                        bssBANK8     000818
_board_set_reset_pin_hook                      nvBANK8      0008C2
_board_set_wait_pin_hook                       nvBANK7      0007D1
_board_setup_addrbus_hook                      nvBANK7      0007CB
_board_start_z80_hook                          nvBANK8      0008D7
_board_sys_init_hook                           nvBANK8      0008DA
_board_wait_io_event_hook                      nvBANK8      0008B9
_board_wr_pin_hook                             bssBANK8     00081B
_board_write_sram_regions_hook                 bssBANK8     000821
_board_write_to_sram_hook                      nvBANK7      0007E6
_bus_master                                    text131      005818
_check_fs                                      text173      01B1BA
_clst2sect                                     text156      0030B4
_con_flush_buffer                              text227      0056BA
_con_output                                    bssBANK7     00073F
_con_output_buffer                             bssBANK10    000A60
_con_output_buffer_head                        bssBANK7     00073D
_count                                         bssBANK7     000753
_cpm_disk_read                                 text70       01DFBE
_cpm_trsect_from_lba                           text69       01E9CA
_cpm_trsect_to_lba                             text68       001AE0
_create_chain                                  text153      0163D2
_create_name                                   text24       01A772
_create_name$791                               cstackCOMRAM 00051B
_ctoa                                          text224      002D78
_ctx_                                          bssBANK7     000700
_dbc_1st                                       text27       003B8E
_dbc_2nd                                       text26       002C98
_dbg_set                                       bssBANK8     000862
_dbuf                                          bssBANK9     000980
_debug                                         bssBANK7     000770
_debug_flags                                   bssCOMRAM    000556
_debug_flags@diskio$F4721                      bssBANK6     0006E9
_dir_alloc                                     text29       0013BA
_dir_clear                                     text32       00126A
_dir_find                                      text23       000292
_dir_next                                      text31       0193E6
_dir_read                                      text17       01E4DE
_dir_register                                  text28       002BB6
_dir_sdi                                       text30       01AB08
_disas_op                                      text74       01B76E
_disas_ops                                     text73       01E826
_disas_z80                                     mediumconst  00DD67
_disk_buf                                      bssBANK9     000900
_disk_init                                     text168      004F7A
_disk_initialize                               text183      01B4A6
_disk_ioctl                                    text162      003618
_disk_read                                     text178      01FB62
_disk_stat                                     dataBANK7    0007FD
_disk_status                                   text182      00418E
_disk_write                                    text176      01F9D0
_dma_helper_z80                                mediumconst  00E4FE
_dma_read_from_sram                            text85       01F1D8
_dma_write_to_sram                             text83       01F03E
_drives                                        dataBANK8    000879
_dtoa                                          text217      01C800
_dtoa$5426                                     cstackCOMRAM 00052C
_edit_line                                     text146      018B38
_efgtoa                                        text203      01213C
_efgtoa$5457                                   cstackBANK5  00056D
_emuz80_47q_bus_master                         text132      004F28
_emuz80_47q_clear_io_event                     text130      005B6A
_emuz80_47q_io_event                           text129      0059FC
_emuz80_47q_name                               text167      005B2E
_emuz80_47q_set_bank_pins                      text144      01FFFE
_emuz80_47q_set_wait_pin                       text120      005980
_emuz80_47q_setup_addrbus                      text143      0056EC
_emuz80_47q_start_z80                          text107      0033DA
_emuz80_47q_sys_init                           text3        002526
_emuz80_47q_wait_io_event                      text128      005864
_emuz80_common_addr_l_pins                     text127      005B66
_emuz80_common_clock_op_hook                   text166      01E32E
_emuz80_common_data_pins                       text126      005B62
_emuz80_common_high_addr_mask                  text145      005A96
_emuz80_common_init                            text10       002810
_emuz80_common_ioreq_pin                       text125      0059E4
_emuz80_common_low_addr_mask                   text108      005B38
_emuz80_common_memrq_pin                       (abs)        000000
_emuz80_common_rd_pin                          text124      0059CC
_emuz80_common_read_from_sram                  text142      00355E
_emuz80_common_set_addr_l_pins                 (abs)        000000
_emuz80_common_set_busrq_pin                   text123      005A6E
_emuz80_common_set_data_dir                    text141      005B48
_emuz80_common_set_data_pins                   text122      005B40
_emuz80_common_set_reset_pin                   text91       005A42
_emuz80_common_set_wait_pin                    text121      005A58
_emuz80_common_start_z80                       text106      005306
_emuz80_common_sys_init                        text2        004390
_emuz80_common_wait_for_programmer             text4        004E84
_emuz80_common_write_to_sram                   text139      0036D2
_errno                                         bssBANK7     000723
_exit                                          text135      005A84
_f_closedir                                    text33       00550A
_f_lseek                                       text72       013F46
_f_mount                                       text169      002620
_f_open                                        text19       014748
_f_opendir                                     text18       01FE80
_f_read                                        text71       0156AA
_f_readdir                                     text15       002AD0
_f_sync                                        text157      01CC4E
_f_write                                       text152      0136CA
_f_write$1261                                  cstackBANK6  000688
_fatdisk_debug                                 text64       00594C
_fileinfo                                      bssBANK8     00084C
_files                                         bssBIGRAM    000C00
_find_volume                                   text172      01D688
_flags                                         bssCOMRAM    000558
_floorf                                        text207      01D076
_follow_path                                   text21       01CA32
_fputc                                         text225      00324C
_fputs                                         text220      00538E
_fs                                            bssBIGRAM    0018CC
_fsdir                                         bssBANK8     000824
_funcs                                         bssBANK10    000A00
_get_fat                                       text155      019C3A
_get_fat$310                                   cstackBANK6  000644
_get_fattime                                   text165      005AA8
_get_fileinfo                                  text16       01D490
_get_ldnumber                                  text171      01EB68
_getch_buffered                                text147      003DE8
_hw_ctrl_lock                                  dataBANK7    0007FE
_hw_ctrl_read                                  text151      005B5C
_hw_ctrl_write                                 text150      003CC0
_install_nmi_vector                            text97       0038F8
_install_rst_vector                            text96       005234
_install_trampoline                            text102      004508
_install_trampoline_cleanup                    text89       0019C0
_install_trampoline_nmi                        text100      004004
_invoke_monitor                                bssBANK7     00074D
_io_handle                                     text36       010000
_io_handle$3460                                cstackBANK8  0008E6
_io_handle$3462                                cstackBANK8  0008E8
_io_handle$3477                                cstackBANK8  0008EC
_io_init                                       text35       005AF4
_io_interrupt_data                             dataBANK7    0007F5
_io_invoke_target_cpu                          text110      01DA60
_io_invoke_target_cpu_prepare                  text92       000106
_io_invoke_target_cpu_teardown                 text87       002028
_io_set_interrupt_data                         text95       005B0C
_io_stat                                       text119      005B24
_io_stat_                                      bssBANK7     000745
_io_wait_write                                 text116      016982
_io_wait_write$3544                            cstackBANK5  0005D8
_io_wait_write$3545                            cstackBANK5  0005DA
_io_wait_write$3551                            cstackBANK5  0005DC
_io_wait_write$3552                            cstackBANK5  0005DE
_isalnum                                       text81       004D18
_isalnum$5714                                  cstackCOMRAM 000514
_isalpha                                       text194      0055B2
_isdigit                                       text80       00571A
_islower                                       text192      005746
_isspace                                       text79       0051EE
_isspace$5733                                  cstackCOMRAM 00050C
_isupper                                       text193      005772
_key_input                                     bssBANK7     000743
_key_input_buffer                              bssBANK10    000AB0
_key_input_buffer_head                         bssBANK7     000741
_labs                                          text206      004A58
_ld_clust                                      text22       004210
_ld_dword                                      text181      00378A
_ld_word                                       text180      005542
_main                                          text0        01FCF4
_main$6343                                     cstackBANK6  0006E1
_mem_init                                      text34       01D288
_memcmp                                        text179      002E4C
_memcpy                                        text205      00506E
_memset                                        text161      000706
_menu_select                                   text13       016EAE
_menu_select$6344                              cstackBANK6  0006D5
_mmu_bank                                      bssBANK6     0006EB
_mmu_bank_config                               text149      0054D0
_mmu_bank_config_callback                      bssBANK8     000812
_mmu_bank_select                               text66       001BFC
_mmu_bank_select_callback                      bssBANK7     00071D
_mmu_mem_size                                  bssBANK7     000719
_mmu_num_banks                                 bssBANK7     000733
_mon_assert_interrupt                          text94       0059B4
_mon_bp_addr                                   bssBANK6     0006E5
_mon_bp_installed                              bssBANK7     000754
_mon_bp_saved_inst                             bssBANK7     00077F
_mon_chartoval                                 text82       01DC32
_mon_cleanup                                   text90       0029E8
_mon_cmd_breakpoint                            text58       000590
_mon_cmd_clearbreakpoint                       text57       004584
_mon_cmd_continue                              text56       005B00
_mon_cmd_disassemble                           text55       01C13E
_mon_cmd_disassemble$4334                      cstackBANK6  0006B8
_mon_cmd_diskread                              text54       0186C8
_mon_cmd_dump                                  text53       01C38C
_mon_cmd_help                                  text46       01E682
_mon_cmd_help$6340                             cstackBANK6  0006B6
_mon_cmd_jump                                  text52       003C2A
_mon_cmd_reset                                 text51       005ACA
_mon_cmd_sdread                                text50       01DE00
_mon_cmd_set                                   text49       014F30
_mon_cmd_set$6342                              cstackBANK6  0006BA
_mon_cmd_status                                text47       01BC74
_mon_cmd_step                                  text48       004676
_mon_cmd_write                                 text59       000CD4
_mon_cmds                                      mediumconst  00E3CB
_mon_cur_addr                                  bssBANK7     000715
_mon_cur_drive                                 bssBANK7     00072D
_mon_cur_lba                                   bssBANK7     000711
_mon_enter                                     text105      004848
_mon_enter_nmi                                 text103      0046EE
_mon_get_hexval                                text44       000416
_mon_get_str                                   text42       0018A0
_mon_init                                      text12       005ABA
_mon_leave                                     text88       00510E
_mon_parse                                     text41       015DBE
_mon_parse$6339                                cstackBANK5  0005DB
_mon_prepare                                   text101      005AE6
_mon_prepare_nmi                               text99       005AD8
_mon_prompt                                    text40       000E40
_mon_prompt$6347                               cstackBANK7  0007B0
_mon_remove_space                              text45       005454
_mon_remove_trailing_space                     text43       004ED6
_mon_setup                                     text93       005B50
_mon_show_registers                            text60       01BEDC
_mon_show_registers$4130                       cstackBANK5  0005CE
_mon_show_registers$4131                       cstackBANK5  0005D0
_mon_show_registers$4132                       cstackBANK5  0005D2
_mon_show_registers$4133                       cstackBANK5  0005D4
_mon_show_registers$4134                       cstackBANK5  0005D6
_mon_show_registers$4135                       cstackBANK5  0005D8
_mon_show_registers$4136                       cstackBANK5  0005DA
_mon_show_registers$4137                       cstackBANK5  0005DC
_mon_start                                     text39       01EEA4
_mon_step_execution                            bssBANK7     000749
_mon_strtoval                                  text76       01D87C
_mon_use_zeropage                              text111      005492
_mount_volume                                  text170      012C06
_move_window                                   text174      003180
_nmi_vector_installed                          dataBANK7    0007F1
_nmi_vector_saved                              bssBANK7     000776
_nout                                          bssBANK7     000725
_num_files                                     bssBANK7     000727
_otoa                                          text202      01F50C
_pad                                           text218      00349C
_pic18f47q43_spi_ctx                           bssBANK8     00086E
_prec                                          bssCOMRAM    000554
_printf                                        text187      0057F0
_put_fat                                       text154      0173B8
_put_fat$339                                   cstackBANK6  00064E
_put_fat$340                                   cstackBANK6  000650
_putch                                         text226      00599A
_putch_buffered                                text117      004B24
_read_debug_settings                           text63       00222C
_read_from_sram_low_addr                       text86       01F83A
_read_prec_or_width                            text200      002F1A
_reinstall_trampoline                          text104      003AF0
_release_bus                                   text239      0053D2
_remove_chain                                  text20       01C5CE
_rom                                           mediumconst  00E16B
_save_zero_page                                text114      004766
_sprintf                                       text75       00501E
_st_clust                                      text163      00515A
_st_dword                                      text160      0048B6
_st_word                                       text164      0057C8
_start_lba                                     dataBANK7    0007E9
_start_z80                                     text11       005910
_stoa                                          text199      01F372
_strchr                                        text25       004DD6
_strcmp                                        text14       0045FE
_strcpy                                        text204      00534A
_strlen                                        text219      0050BE
_strncmp                                       text198      001774
_strtoul                                       text77       005688
_sync_fs                                       text159      01CE64
_sync_window                                   text175      01ED06
_sys_init                                      text1        005888
_tmp_buf                                       bssBIGRAM    001AFC
_toupper                                       text191      00557A
_trampoline                                    mediumconst  00E314
_trampoline_cleanup                            mediumconst  00E4BF
_trampoline_destroyed                          bssBANK7     00072F
_trampoline_installed                          dataBANK7    0007F3
_trampoline_nmi                                mediumconst  00E47F
_try_to_invoke_monitor                         text38       00242A
_turn_on_io_led                                bssBANK7     000747
_ungetch                                       text246      004ABE
_uninstall_nmi_vector                          text98       00498C
_uninstall_trampoline                          text112      0049F2
_util_addrdump                                 text186      00087C
_util_hexdump                                  text184      000FAA
_util_hexdump_sum                              text37       003F80
_util_stricmp                                  text62       00440E
_utoa                                          text195      00110E
_validate                                      text158      00212A
_validate$977                                  cstackBANK5  0005D6
_vfpfcnvrt                                     text189      011324
_vfpfcnvrt$5525                                cstackBANK5  0005A3
_vfprintf                                      text188      0047D8
_width                                         bssCOMRAM    000552
_write_debug_settings                          text61       00271A
_write_to_sram_low_addr                        text84       01F6A4
_xtoa                                          text190      01B9FE
_xtoa$5494                                     cstackCOMRAM 000531
_z80_context                                   bssBANK7     000758
_zero_page_saved                               bssBANK11    000B00
_zero_page_saved_size                          bssBANK7     000731
abs@a                                          cstackCOMRAM 000512
acquire_bus@ctx                                cstackCOMRAM 00050A
acquire_bus@ctx_                               cstackCOMRAM 000508
bank_select_callback@from                      cstackCOMRAM 000528
bank_select_callback@installed                 bssBANK7     00072B
bank_select_callback@to                        cstackCOMRAM 00052A
bus_master@enable                              cstackCOMRAM 00050A
check_fs@b                                     cstackBANK6  000643
check_fs@fs                                    cstackBANK6  000636
check_fs@sect                                  cstackBANK6  000638
check_fs@sign                                  cstackBANK6  00063F
check_fs@w                                     cstackBANK6  000641
clst2sect@clst                                 cstackCOMRAM 000516
clst2sect@fs                                   cstackCOMRAM 000514
cpm_disk_read@buf                              cstackBANK6  0006A3
cpm_disk_read@drive                            cstackBANK6  00069D
cpm_disk_read@filep                            cstackBANK6  0006AB
cpm_disk_read@fres                             cstackBANK6  0006AD
cpm_disk_read@lba                              cstackBANK6  00069F
cpm_disk_read@n                                cstackBANK6  0006B0
cpm_disk_read@result                           cstackBANK6  0006AE
cpm_disk_read@sectors                          cstackBANK6  0006A5
cpm_trsect_from_lba@drive                      cstackBANK5  0005CE
cpm_trsect_from_lba@lba                        cstackBANK5  0005D4
cpm_trsect_from_lba@sector                     cstackBANK5  0005D2
cpm_trsect_from_lba@track                      cstackBANK5  0005D0
cpm_trsect_to_lba@drive                        cstackBANK5  0005CE
cpm_trsect_to_lba@lba                          cstackBANK5  0005D4
cpm_trsect_to_lba@sector                       cstackBANK5  0005D2
cpm_trsect_to_lba@track                        cstackBANK5  0005D0
create_chain@clst                              cstackBANK6  000659
create_chain@cs                                cstackBANK6  000670
create_chain@fs                                cstackBANK6  00066E
create_chain@ncl                               cstackBANK6  00066A
create_chain@obj                               cstackBANK6  000657
create_chain@res                               cstackBANK6  000665
create_chain@scl                               cstackBANK6  000666
create_name@c                                  cstackCOMRAM 000528
create_name@d                                  cstackCOMRAM 00051D
create_name@dp                                 cstackCOMRAM 000514
create_name@i                                  cstackCOMRAM 000526
create_name@ni                                 cstackCOMRAM 00051E
create_name@p                                  cstackCOMRAM 000520
create_name@path                               cstackCOMRAM 000516
create_name@sfn                                cstackCOMRAM 000524
create_name@si                                 cstackCOMRAM 000522
ctoa@c                                         cstackCOMRAM 000516
ctoa@fp                                        cstackCOMRAM 000514
ctoa@l                                         cstackCOMRAM 000518
ctoa@w                                         cstackCOMRAM 00051A
dbc_1st@c                                      cstackCOMRAM 00050A
dbc_2nd@c                                      cstackCOMRAM 00050A
dir_alloc@dp                                   cstackBANK6  00068E
dir_alloc@fs                                   cstackBANK6  000695
dir_alloc@n                                    cstackBANK6  000697
dir_alloc@n_ent                                cstackBANK6  000690
dir_alloc@res                                  cstackBANK6  000699
dir_clear@clst                                 cstackBANK6  00062D
dir_clear@fs                                   cstackBANK6  00062B
dir_clear@ibuf                                 cstackBANK6  000633
dir_clear@n                                    cstackBANK6  00063B
dir_clear@sect                                 cstackBANK6  000635
dir_clear@szb                                  cstackBANK6  000639
dir_find@c                                     cstackBANK6  000694
dir_find@dp                                    cstackBANK6  00068E
dir_find@fs                                    cstackBANK6  000692
dir_find@res                                   cstackBANK6  000695
dir_next@clst                                  cstackBANK6  00068A
dir_next@dp                                    cstackBANK6  000674
dir_next@fs                                    cstackBANK6  000688
dir_next@ofs                                   cstackBANK6  000684
dir_next@stretch                               cstackBANK6  000676
dir_read@attr                                  cstackBANK6  000698
dir_read@b                                     cstackBANK6  000699
dir_read@dp                                    cstackBANK6  00068E
dir_read@fs                                    cstackBANK6  000696
dir_read@res                                   cstackBANK6  00069A
dir_read@vol                                   cstackBANK6  000690
dir_register@dp                                cstackBANK6  00069A
dir_register@fs                                cstackBANK6  00069C
dir_register@res                               cstackBANK6  00069E
dir_sdi@clst                                   cstackBANK6  000664
dir_sdi@csz                                    cstackBANK6  000660
dir_sdi@dp                                     cstackBANK6  000650
dir_sdi@fs                                     cstackBANK6  000668
dir_sdi@ofs                                    cstackBANK6  000652
disas_op@buf                                   cstackBANK5  0005D0
disas_op@buf_len                               cstackBANK5  0005D2
disas_op@ent                                   cstackBANK5  0005DD
disas_op@ids                                   cstackBANK5  0005CA
disas_op@insts                                 cstackBANK5  0005CC
disas_op@len                                   cstackBANK5  0005CE
disas_op@operand                               cstackBANK5  0005D9
disas_op@pc                                    cstackBANK5  0005DB
disas_op@result                                cstackBANK5  0005D7
disas_ops@addr                                 cstackBANK5  0005E1
disas_ops@buf                                  cstackBANK6  000600
disas_ops@func                                 cstackBANK5  0005EB
disas_ops@i                                    cstackBANK6  000666
disas_ops@ids                                  cstackBANK5  0005DF
disas_ops@insts                                cstackBANK5  0005E5
disas_ops@len                                  cstackBANK5  0005E7
disas_ops@n                                    cstackBANK6  000668
disas_ops@nops                                 cstackBANK5  0005E9
disas_ops@result                               cstackBANK6  000664
disk_initialize@buf                            cstackBANK6  000613
disk_initialize@pdrv                           cstackBANK6  000693
disk_ioctl@buff                                cstackBANK5  0005CF
disk_ioctl@cmd                                 cstackBANK5  0005CE
disk_ioctl@pdrv                                cstackBANK5  0005D3
disk_ioctl@res                                 cstackBANK5  0005D4
disk_read@buff                                 cstackBANK6  00060F
disk_read@count                                cstackBANK6  000615
disk_read@i                                    cstackBANK5  0005FE
disk_read@pdrv                                 cstackBANK5  0005FD
disk_read@sector                               cstackBANK6  000611
disk_status@pdrv                               cstackCOMRAM 000551
disk_write@buff                                cstackBANK6  00060D
disk_write@count                               cstackBANK6  000613
disk_write@i                                   cstackBANK5  0005FE
disk_write@pdrv                                cstackBANK5  0005FD
disk_write@sector                              cstackBANK6  00060F
dma_read_from_sram@addr                        cstackBANK6  000647
dma_read_from_sram@buf                         cstackBANK6  000637
dma_read_from_sram@high_addr_mask              cstackBANK6  000643
dma_read_from_sram@len                         cstackBANK6  000639
dma_read_from_sram@second_half                 cstackBANK6  000649
dma_read_from_sram@src                         cstackBANK6  000633
dma_write_to_sram@addr                         cstackBANK6  000647
dma_write_to_sram@buf                          cstackBANK6  000637
dma_write_to_sram@dest                         cstackBANK6  000633
dma_write_to_sram@high_addr_mask               cstackBANK6  000643
dma_write_to_sram@len                          cstackBANK6  000639
dma_write_to_sram@second_half                  cstackBANK6  000649
dtoa@d                                         cstackCOMRAM 000528
dtoa@fp                                        cstackCOMRAM 000526
dtoa@i                                         cstackCOMRAM 000532
dtoa@p                                         cstackCOMRAM 00052E
dtoa@s                                         cstackCOMRAM 000534
dtoa@w                                         cstackCOMRAM 000530
edit_line@c                                    cstackBANK5  0005E3
edit_line@i                                    cstackBANK5  0005DB
edit_line@i_4215                               cstackBANK5  0005DF
edit_line@i_4217                               cstackBANK5  0005D9
edit_line@i_4219                               cstackBANK5  0005E1
edit_line@line                                 cstackBANK5  0005CE
edit_line@maxlen                               cstackBANK5  0005D0
edit_line@pos                                  cstackBANK5  0005D4
edit_line@refresh                              cstackBANK5  0005DD
edit_line@start                                cstackBANK5  0005D2
efgtoa@c                                       cstackBANK5  000566
efgtoa@d                                       cstackBANK5  000572
efgtoa@e                                       cstackBANK5  000576
efgtoa@f                                       cstackBANK5  000562
efgtoa@fp                                      cstackBANK5  000560
efgtoa@g                                       cstackBANK5  000589
efgtoa@h                                       cstackBANK5  00057E
efgtoa@i                                       cstackBANK5  000586
efgtoa@l                                       cstackBANK5  000582
efgtoa@m                                       cstackBANK5  000574
efgtoa@mode                                    cstackBANK5  00056F
efgtoa@n                                       cstackBANK5  00058D
efgtoa@ne                                      cstackBANK5  000567
efgtoa@nmode                                   cstackBANK5  000570
efgtoa@ou                                      cstackBANK5  000578
efgtoa@p                                       cstackBANK5  000569
efgtoa@pp                                      cstackBANK5  000571
efgtoa@sign                                    cstackBANK5  000588
efgtoa@t                                       cstackBANK5  00056B
efgtoa@u                                       cstackBANK5  00058F
efgtoa@w                                       cstackBANK5  00057C
emuz80_47q_bus_master@enable                   cstackCOMRAM 000508
emuz80_47q_set_bank_pins@addr                  cstackCOMRAM 000508
emuz80_47q_set_wait_pin@v                      cstackCOMRAM 000508
emuz80_47q_setup_addrbus@addr                  cstackCOMRAM 00050E
emuz80_47q_sys_init@retry                      bssBANK7     00074B
emuz80_common_clock_op_hook@clocks             cstackCOMRAM 000508
emuz80_common_clock_op_hook@nco1inc            bssBANK7     000720
emuz80_common_clock_op_hook@running            dataBANK7    0007F9
emuz80_common_read_from_sram@ab                cstackCOMRAM 000518
emuz80_common_read_from_sram@addr              cstackCOMRAM 00050E
emuz80_common_read_from_sram@buf               cstackCOMRAM 000510
emuz80_common_read_from_sram@i                 cstackCOMRAM 000516
emuz80_common_read_from_sram@len               cstackCOMRAM 000512
emuz80_common_set_busrq_pin@v                  cstackCOMRAM 000508
emuz80_common_set_data_dir@v                   cstackCOMRAM 000508
emuz80_common_set_data_pins@v                  cstackCOMRAM 000508
emuz80_common_set_reset_pin@v                  cstackCOMRAM 000508
emuz80_common_set_wait_pin@v                   cstackCOMRAM 000508
emuz80_common_write_to_sram@ab                 cstackCOMRAM 000518
emuz80_common_write_to_sram@addr               cstackCOMRAM 00050E
emuz80_common_write_to_sram@buf                cstackCOMRAM 000510
emuz80_common_write_to_sram@i                  cstackCOMRAM 000516
emuz80_common_write_to_sram@len                cstackCOMRAM 000512
end_of_initialization                          cinit        0030AE
exit@code                                      cstackCOMRAM 00050A
f_closedir@dp                                  cstackBANK5  0005D9
f_closedir@fs                                  cstackBANK5  0005DB
f_closedir@res                                 cstackBANK5  0005DD
f_lseek@bcs                                    cstackBANK6  000693
f_lseek@clst                                   cstackBANK6  000699
f_lseek@fp                                     cstackBANK6  000674
f_lseek@fs                                     cstackBANK6  000697
f_lseek@ifptr                                  cstackBANK6  00068A
f_lseek@nsect                                  cstackBANK6  00068E
f_lseek@ofs                                    cstackBANK6  000676
f_lseek@res                                    cstackBANK6  000692
f_mount@cfs                                    cstackBANK6  0006CA
f_mount@fs                                     cstackBANK6  0006C2
f_mount@opt                                    cstackBANK6  0006C6
f_mount@path                                   cstackBANK6  0006C4
f_mount@res                                    cstackBANK6  0006C7
f_mount@rp                                     cstackBANK6  0006C8
f_mount@vol                                    cstackBANK6  0006CC
f_open@bcs                                     cstackBANK7  000780
f_open@cl                                      cstackBANK7  000788
f_open@clst                                    cstackBANK7  000794
f_open@dj                                      cstackBANK7  00079B
f_open@fp                                      cstackBANK6  0006C2
f_open@fs                                      cstackBANK7  000798
f_open@mode                                    cstackBANK6  0006C6
f_open@ofs                                     cstackBANK7  000790
f_open@path                                    cstackBANK6  0006C4
f_open@res                                     cstackBANK7  00079A
f_open@sc                                      cstackBANK7  00078C
f_open@tm                                      cstackBANK7  000784
f_opendir@dp                                   cstackBANK6  0006C2
f_opendir@fs                                   cstackBANK6  0006C6
f_opendir@path                                 cstackBANK6  0006C4
f_opendir@res                                  cstackBANK6  0006C8
f_read@br                                      cstackBANK6  000656
f_read@btr                                     cstackBANK6  000654
f_read@buff                                    cstackBANK6  000652
f_read@cc                                      cstackBANK6  000671
f_read@clst                                    cstackBANK6  000669
f_read@csect                                   cstackBANK6  00066F
f_read@fp                                      cstackBANK6  000650
f_read@fs                                      cstackBANK6  000679
f_read@rbuff                                   cstackBANK6  00066D
f_read@rcnt                                    cstackBANK6  000673
f_read@remain                                  cstackBANK6  000664
f_read@res                                     cstackBANK6  000668
f_read@sect                                    cstackBANK6  000675
f_readdir@dp                                   cstackBANK6  00069B
f_readdir@fno                                  cstackBANK6  00069D
f_readdir@fs                                   cstackBANK6  00069F
f_readdir@res                                  cstackBANK6  0006A1
f_sync@dir                                     cstackBANK6  00063D
f_sync@fp                                      cstackBANK6  000636
f_sync@fs                                      cstackBANK6  00063F
f_sync@res                                     cstackBANK6  00063C
f_sync@tm                                      cstackBANK6  000638
f_write@btw                                    cstackBANK6  000678
f_write@buff                                   cstackBANK6  000676
f_write@bw                                     cstackBANK6  00067A
f_write@cc                                     cstackBANK6  000691
f_write@clst                                   cstackBANK6  000693
f_write@csect                                  cstackBANK6  00068F
f_write@fp                                     cstackBANK6  000674
f_write@fs                                     cstackBANK6  00069D
f_write@res                                    cstackBANK6  00068C
f_write@sect                                   cstackBANK6  000699
f_write@wbuff                                  cstackBANK6  00068D
f_write@wcnt                                   cstackBANK6  000697
fatdisk_debug@newval                           cstackCOMRAM 000508
fatdisk_debug@res                              cstackCOMRAM 00050A
find_volume@fmt                                cstackBANK6  00065E
find_volume@fs                                 cstackBANK6  000644
find_volume@i                                  cstackBANK6  000660
find_volume@mbr_pt                             cstackBANK6  00064E
find_volume@part                               cstackBANK6  000646
floorf@F526                                    bssBANK7     000705
floorf@e                                       cstackCOMRAM 000549
floorf@m                                       cstackCOMRAM 000545
floorf@u                                       cstackCOMRAM 00054B
floorf@x                                       cstackCOMRAM 00053B
follow_path@dp                                 cstackBANK6  000696
follow_path@fs                                 cstackBANK6  0006A0
follow_path@ns                                 cstackBANK6  0006A2
follow_path@path                               cstackBANK6  000698
follow_path@res                                cstackBANK6  0006A3
fputc@c                                        cstackCOMRAM 00050B
fputc@fp                                       cstackCOMRAM 00050D
fputs@c                                        cstackCOMRAM 000518
fputs@fp                                       cstackCOMRAM 000516
fputs@i                                        cstackCOMRAM 000519
fputs@s                                        cstackCOMRAM 000514
get_fat@bc                                     cstackBANK6  00064C
get_fat@clst                                   cstackBANK6  000638
get_fat@fs                                     cstackBANK6  00064E
get_fat@obj                                    cstackBANK6  000636
get_fat@val                                    cstackBANK6  000648
get_fat@wc                                     cstackBANK6  000646
get_fileinfo@c                                 cstackCOMRAM 00051F
get_fileinfo@di                                cstackCOMRAM 000520
get_fileinfo@dp                                cstackCOMRAM 000515
get_fileinfo@fno                               cstackCOMRAM 000517
get_fileinfo@si                                cstackCOMRAM 00051D
get_ldnumber@i                                 cstackCOMRAM 00050C
get_ldnumber@path                              cstackCOMRAM 000508
get_ldnumber@tc                                cstackCOMRAM 000510
get_ldnumber@tp                                cstackCOMRAM 000513
get_ldnumber@tt                                cstackCOMRAM 00050E
get_ldnumber@vol                               cstackCOMRAM 000511
getch_buffered@res                             cstackCOMRAM 00050E
hw_ctrl_write@val                              cstackCOMRAM 000551
i2___con_flush_buffer                          text245      004C50
i2___lwmod                                     text247      004CB4
i2___lwmod@counter                             cstackCOMRAM 000505
i2___lwmod@dividend                            cstackCOMRAM 000501
i2___lwmod@divisor                             cstackCOMRAM 000503
install_nmi_vector@bank                        cstackCOMRAM 000526
install_rst_vector@bank                        cstackCOMRAM 000522
install_trampoline@bank                        cstackCOMRAM 00052E
install_trampoline_nmi@bank                    cstackCOMRAM 00052E
intlevel0                                      text         000000
intlevel1                                      text         000000
intlevel2                                      text         000000
intlevel3                                      text         000000
io_handle@addr                                 cstackBANK8  0008DD
io_handle@addr_3526                            cstackBANK8  0008E1
io_handle@c                                    cstackBANK8  0008E5
io_handle@disk_datap                           bssBANK7     000739
io_handle@disk_dmah                            bssBANK7     000755
io_handle@disk_dmal                            bssBANK7     000756
io_handle@disk_drive                           bssBANK6     0006EE
io_handle@disk_op                              bssBANK6     0006ED
io_handle@disk_sector                          bssBANK7     00073B
io_handle@disk_track                           bssBANK7     000757
io_handle@do_bus_master                        cstackBANK8  0008F4
io_handle@fetch_count                          cstackBANK8  0008EA
io_handle@filep                                cstackBANK8  0008F6
io_handle@fres                                 cstackBANK8  0008F8
io_handle@io_addr                              cstackBANK8  0008FB
io_handle@io_data                              cstackBANK8  0008FC
io_handle@io_output_chars                      bssBANK7     000735
io_handle@n                                    cstackBANK8  0008F9
io_handle@prev_output_chars                    bssBANK7     000737
io_handle@rd                                   cstackBANK8  0008EE
io_handle@sector                               cstackBANK8  0008F0
io_invoke_target_cpu@bank                      cstackBANK5  0005EB
io_invoke_target_cpu@i                         cstackBANK5  0005FA
io_invoke_target_cpu@inparams                  cstackBANK5  0005E3
io_invoke_target_cpu@ninparams                 cstackBANK5  0005E5
io_invoke_target_cpu@noutparams                cstackBANK5  0005E9
io_invoke_target_cpu@outparams                 cstackBANK5  0005E7
io_invoke_target_cpu@result_data               cstackBANK5  0005F7
io_invoke_target_cpu@size                      cstackBANK5  0005F8
io_invoke_target_cpu_prepare@dummy_rom         mediumconst  00E51A
io_invoke_target_cpu_prepare@saved_status      cstackBANK5  0005E3
io_invoke_target_cpu_teardown@saved_status     cstackBANK5  0005E3
io_set_interrupt_data@data                     cstackCOMRAM 000508
io_wait_write@io_addr                          cstackBANK5  0005E2
io_wait_write@io_data                          cstackBANK5  0005E1
io_wait_write@result_io_data                   cstackBANK5  0005D6
io_wait_write@wait_io_addr                     cstackBANK5  0005E0
isa$std                                        (abs)        000001
isa$xinst                                      (abs)        000000
isalnum@c                                      cstackCOMRAM 00050E
isalpha@c                                      cstackCOMRAM 000508
isdigit@c                                      cstackCOMRAM 000508
islower@c                                      cstackCOMRAM 000508
isspace@c                                      cstackCOMRAM 000508
isupper@c                                      cstackCOMRAM 000508
ivt0x8_base                                    ivt0x8       000008
ivt0x8_undefint                                ivt0x8       000100
labs@a                                         cstackCOMRAM 000508
ld_clust@cl                                    cstackCOMRAM 000517
ld_clust@dir                                   cstackCOMRAM 000511
ld_clust@fs                                    cstackCOMRAM 00050F
ld_dword@ptr                                   cstackCOMRAM 000508
ld_dword@rv                                    cstackCOMRAM 000511
ld_word@ptr                                    cstackCOMRAM 000508
ld_word@rv                                     cstackCOMRAM 00050D
mem_init@addr                                  cstackBANK6  000651
mem_init@i                                     cstackBANK6  00064F
memcmp@l                                       cstackCOMRAM 000510
memcmp@n                                       cstackCOMRAM 00050C
memcmp@r                                       cstackCOMRAM 000512
memcmp@vl                                      cstackCOMRAM 000508
memcmp@vr                                      cstackCOMRAM 00050A
memcpy@d                                       cstackCOMRAM 00050F
memcpy@d1                                      cstackCOMRAM 000508
memcpy@n                                       cstackCOMRAM 00050C
memcpy@s                                       cstackCOMRAM 000511
memcpy@s1                                      cstackCOMRAM 00050A
memcpy@tmp                                     cstackCOMRAM 00050E
memset@c                                       cstackCOMRAM 00050A
memset@dest                                    cstackCOMRAM 000508
memset@k                                       cstackCOMRAM 000510
memset@n                                       cstackCOMRAM 00050C
memset@s                                       cstackCOMRAM 000512
menu_select@buf                                cstackBANK6  0006D7
menu_select@c                                  cstackBANK6  0006E0
menu_select@drive                              cstackBANK6  0006DA
menu_select@drive_letter                       cstackBANK6  0006D9
menu_select@i                                  cstackBANK6  0006DE
menu_select@selection                          cstackBANK6  0006DC
mmu_bank_config@nbanks                         cstackBANK5  0005CE
mmu_bank_select@bank                           cstackBANK5  0005CE
mmu_bank_select@first_time                     dataBANK7    0007FC
mon_chartoval@curptr                           bssBANK7     000729
mon_chartoval@res                              cstackCOMRAM 00050E
mon_chartoval@str                              cstackCOMRAM 000510
mon_chartoval@strp                             cstackCOMRAM 000508
mon_chartoval@val                              cstackCOMRAM 00050F
mon_chartoval@valp                             cstackCOMRAM 00050A
mon_cleanup@reti                               mediumconst  00E527
mon_cleanup@retn                               mediumconst  00E524
mon_cmd_breakpoint@F18130                      dataBANK7    0007FB
mon_cmd_breakpoint@args                        cstackBANK6  0006B4
mon_cmd_breakpoint@rst08                       cstackBANK6  0006B8
mon_cmd_disassemble@addr                       cstackBANK6  0006BE
mon_cmd_disassemble@args                       cstackBANK6  0006B4
mon_cmd_disassemble@done                       cstackBANK6  0006BA
mon_cmd_disassemble@i                          cstackBANK6  0006BC
mon_cmd_disassemble@leftovers                  cstackBANK6  0006C6
mon_cmd_disassemble@len                        cstackBANK6  0006C2
mon_cmd_disassemble@n                          cstackBANK6  0006C4
mon_cmd_diskread@argc                          cstackBANK6  0006B2
mon_cmd_diskread@args                          cstackBANK6  0006B4
mon_cmd_diskread@drive                         cstackBANK6  0006C1
mon_cmd_diskread@i                             cstackBANK6  0006B8
mon_cmd_diskread@lba                           cstackBANK6  0006BD
mon_cmd_diskread@len                           cstackBANK6  0006BA
mon_cmd_diskread@sector                        bssBANK7     000779
mon_cmd_diskread@track                         bssBANK7     00077B
mon_cmd_diskread@update_lba                    cstackBANK6  0006BC
mon_cmd_dump@addr                              cstackBANK6  0006BC
mon_cmd_dump@args                              cstackBANK6  0006B4
mon_cmd_dump@len                               cstackBANK6  0006C0
mon_cmd_dump@n                                 cstackBANK6  0006BA
mon_cmd_help@argc                              cstackBANK6  0006B2
mon_cmd_help@args                              cstackBANK6  0006B4
mon_cmd_help@cmd_idx                           cstackBANK6  0006B8
mon_cmd_jump@addr                              cstackBANK6  0006B8
mon_cmd_jump@args                              cstackBANK6  0006B4
mon_cmd_sdread@argc                            cstackBANK6  0006B2
mon_cmd_sdread@args                            cstackBANK6  0006B4
mon_cmd_sdread@count                           cstackBANK6  0006BA
mon_cmd_sdread@i                               cstackBANK6  0006B8
mon_cmd_sdread@lba                             bssBANK7     00070D
mon_cmd_set@args                               cstackBANK6  0006B4
mon_cmd_set@i                                  cstackBANK6  0006BE
mon_cmd_set@ptr                                cstackBANK6  0006BC
mon_cmd_set@variables                          mediumconst  00DD0F
mon_cmd_status@pc                              cstackBANK6  0006BE
mon_cmd_status@sp                              cstackBANK6  0006BC
mon_cmd_step@args                              cstackBANK6  0006B4
mon_cmd_write@addr                             cstackBANK6  0006B8
mon_cmd_write@args                             cstackBANK6  0006B4
mon_cmd_write@val                              cstackBANK6  0006BC
mon_get_hexval@c                               cstackCOMRAM 000514
mon_get_hexval@linep                           cstackCOMRAM 00050D
mon_get_hexval@result                          cstackCOMRAM 000512
mon_get_str@c                                  cstackCOMRAM 00051B
mon_get_str@linep                              cstackCOMRAM 000512
mon_get_str@result                             cstackCOMRAM 000519
mon_get_str@tmpp                               cstackCOMRAM 000517
mon_parse@args                                 cstackBANK5  0005D2
mon_parse@cmd_idx                              cstackBANK5  0005E1
mon_parse@command                              cstackBANK5  0005D0
mon_parse@i                                    cstackBANK5  0005E3
mon_parse@last_command_idx                     dataBANK7    0007ED
mon_parse@line                                 cstackBANK5  0005CE
mon_parse@match_idx                            cstackBANK5  0005DF
mon_parse@nmatches                             cstackBANK5  0005DD
mon_prompt@argc                                cstackBANK7  0007B5
mon_prompt@args                                cstackBANK7  0007BD
mon_prompt@command                             cstackBANK7  0007B9
mon_prompt@input                               cstackBANK7  0007B3
mon_prompt@line                                cstackBANK7  000780
mon_prompt@prompt_len                          cstackBANK7  0007BB
mon_prompt@result                              cstackBANK7  0007B7
mon_remove_space@linep                         cstackCOMRAM 000508
mon_remove_trailing_space@linep                cstackCOMRAM 000508
mon_strtoval@null_str                          bssBANK7     00077D
mon_strtoval@res                               cstackCOMRAM 000541
mon_strtoval@str                               cstackCOMRAM 000538
mon_strtoval@tmpp                              cstackCOMRAM 00053F
mon_use_zeropage@bank                          cstackCOMRAM 00052A
mon_use_zeropage@size                          cstackCOMRAM 00052C
mount_volume@bsect                             cstackBANK6  0006B1
mount_volume@fasize                            cstackBANK6  0006BA
mount_volume@fmt                               cstackBANK6  0006BE
mount_volume@fs                                cstackBANK6  0006C0
mount_volume@mode                              cstackBANK6  000698
mount_volume@nclst                             cstackBANK6  0006B6
mount_volume@nrsv                              cstackBANK6  0006AB
mount_volume@path                              cstackBANK6  000694
mount_volume@rfs                               cstackBANK6  000696
mount_volume@stat                              cstackBANK6  0006B5
mount_volume@sysect                            cstackBANK6  0006A7
mount_volume@szbfat                            cstackBANK6  0006A1
mount_volume@tsect                             cstackBANK6  0006AD
mount_volume@vol                               cstackBANK6  0006A5
move_window@fs                                 cstackBANK6  00062B
move_window@res                                cstackBANK6  000635
move_window@sect                               cstackBANK6  00062D
otoa@d                                         cstackCOMRAM 000528
otoa@fp                                        cstackCOMRAM 000526
otoa@i                                         cstackCOMRAM 000535
otoa@p                                         cstackCOMRAM 000530
otoa@t                                         cstackCOMRAM 000532
otoa@w                                         cstackCOMRAM 000533
pad@buf                                        cstackCOMRAM 00051D
pad@fp                                         cstackCOMRAM 00051B
pad@i                                          cstackCOMRAM 000522
pad@p                                          cstackCOMRAM 00051F
pad@w                                          cstackCOMRAM 000524
printf@ap                                      cstackBANK5  0005CC
printf@fmt                                     cstackBANK5  0005B4
put_fat@bc                                     cstackBANK6  000654
put_fat@clst                                   cstackBANK6  000638
put_fat@fs                                     cstackBANK6  000636
put_fat@p                                      cstackBANK6  000652
put_fat@res                                    cstackBANK6  000656
put_fat@val                                    cstackBANK6  00063C
putch@c                                        cstackCOMRAM 00050A
putch_buffered@c                               cstackCOMRAM 00050D
read_debug_settings@v                          cstackCOMRAM 00050C
read_from_sram_low_addr@addr                   cstackBANK6  00062F
read_from_sram_low_addr@addr_gap_mask          cstackBANK6  00062B
read_from_sram_low_addr@bank                   cstackBANK6  000629
read_from_sram_low_addr@buf                    cstackBANK6  000625
read_from_sram_low_addr@len                    cstackBANK6  000627
read_from_sram_low_addr@n                      cstackBANK6  000631
read_from_sram_low_addr@saved_io_status        cstackBANK6  00062D
read_from_sram_low_addr@src                    cstackBANK6  000621
read_prec_or_width@ap                          cstackCOMRAM 000510
read_prec_or_width@c                           cstackCOMRAM 000514
read_prec_or_width@fmt                         cstackCOMRAM 00050E
read_prec_or_width@n                           cstackCOMRAM 000515
release_bus@ctx                                cstackCOMRAM 00050A
release_bus@ctx_                               cstackCOMRAM 000508
remove_chain@clst                              cstackBANK6  000659
remove_chain@fs                                cstackBANK6  00066E
remove_chain@nxt                               cstackBANK6  000669
remove_chain@obj                               cstackBANK6  000657
remove_chain@pclst                             cstackBANK6  00065D
remove_chain@res                               cstackBANK6  00066D
save_zero_page@bank                            cstackCOMRAM 000522
save_zero_page@size                            cstackCOMRAM 000524
sprintf@ap                                     cstackBANK5  0005C8
sprintf@f                                      cstackBANK5  0005BC
sprintf@fmt                                    cstackBANK5  0005B6
sprintf@s                                      cstackBANK5  0005B4
st_clust@cl                                    cstackCOMRAM 000510
st_clust@dir                                   cstackCOMRAM 00050E
st_clust@fs                                    cstackCOMRAM 00050C
st_dword@ptr                                   cstackCOMRAM 000508
st_dword@val                                   cstackCOMRAM 00050A
st_word@ptr                                    cstackCOMRAM 000508
st_word@val                                    cstackCOMRAM 00050A
stackhi                                        (abs)        000000
stacklo                                        (abs)        000000
start                                          init         000102
start_initialization                           cinit        002FE8
stoa@F1192                                     dataBANK8    000872
stoa@cp                                        cstackCOMRAM 000524
stoa@fp                                        cstackCOMRAM 000514
stoa@i                                         cstackCOMRAM 000520
stoa@l                                         cstackCOMRAM 000528
stoa@nuls                                      cstackCOMRAM 000519
stoa@p                                         cstackCOMRAM 000526
stoa@s                                         cstackCOMRAM 000516
stoa@w                                         cstackCOMRAM 000522
strchr@c                                       cstackCOMRAM 00050A
strchr@s                                       cstackCOMRAM 000508
strcmp@l                                       cstackCOMRAM 000508
strcmp@r                                       cstackCOMRAM 00050A
strcpy@d                                       cstackCOMRAM 00050E
strcpy@dest                                    cstackCOMRAM 000508
strcpy@s                                       cstackCOMRAM 00050C
strcpy@src                                     cstackCOMRAM 00050A
strlen@a                                       cstackCOMRAM 00050A
strlen@s                                       cstackCOMRAM 000508
strncmp@_l                                     cstackCOMRAM 000508
strncmp@_r                                     cstackCOMRAM 00050A
strncmp@l                                      cstackCOMRAM 00050F
strncmp@n                                      cstackCOMRAM 00050C
strncmp@r                                      cstackCOMRAM 000511
strtoul@base                                   cstackCOMRAM 000536
strtoul@endptr                                 cstackCOMRAM 000534
strtoul@s                                      cstackCOMRAM 000532
sync_fs@fs                                     cstackBANK6  00062B
sync_fs@res                                    cstackBANK6  000635
sync_window@fs                                 cstackBANK6  000619
sync_window@res                                cstackCOMRAM 000551
toupper@c                                      cstackCOMRAM 00050C
ungetch@c                                      cstackCOMRAM 000506
util_addrdump@addr                             cstackBANK5  0005D4
util_addrdump@addr_offs                        cstackBANK5  0005D0
util_addrdump@buf                              cstackBANK5  0005EB
util_addrdump@chars                            cstackBANK5  0005DA
util_addrdump@header                           cstackBANK5  0005CE
util_addrdump@i                                cstackBANK5  0005ED
util_addrdump@size                             cstackBANK5  0005D6
util_hexdump@addr                              cstackBANK5  0005D0
util_hexdump@buf                               cstackBANK5  0005E7
util_hexdump@chars                             cstackBANK5  0005D6
util_hexdump@header                            cstackBANK5  0005CE
util_hexdump@i                                 cstackBANK5  0005E9
util_hexdump@size                              cstackBANK5  0005D2
util_hexdump_sum@addr                          cstackBANK5  0005ED
util_hexdump_sum@header                        cstackBANK5  0005EB
util_hexdump_sum@i                             cstackBANK5  0005F3
util_hexdump_sum@p                             cstackBANK5  0005F1
util_hexdump_sum@size                          cstackBANK5  0005EF
util_hexdump_sum@sum                           cstackBANK5  0005F5
util_stricmp@a                                 cstackCOMRAM 000510
util_stricmp@b                                 cstackCOMRAM 000512
util_stricmp@ua                                cstackCOMRAM 000517
util_stricmp@ub                                cstackCOMRAM 000515
utoa@d                                         cstackCOMRAM 000528
utoa@fp                                        cstackCOMRAM 000526
utoa@i                                         cstackCOMRAM 000530
utoa@p                                         cstackCOMRAM 00052C
utoa@w                                         cstackCOMRAM 00052E
validate@obj                                   cstackBANK5  0005CE
validate@res                                   cstackBANK5  0005D8
validate@rfs                                   cstackBANK5  0005D0
vfpfcnvrt@ap                                   cstackBANK5  000597
vfpfcnvrt@c                                    cstackBANK5  0005A9
vfpfcnvrt@convarg                              cstackBANK5  0005A5
vfpfcnvrt@cp                                   cstackBANK5  0005AA
vfpfcnvrt@done                                 cstackBANK5  0005A1
vfpfcnvrt@fmt                                  cstackBANK5  000595
vfpfcnvrt@fp                                   cstackBANK5  000593
vfprintf@ap                                    cstackBANK5  0005B0
vfprintf@cfmt                                  cstackBANK5  0005B2
vfprintf@fmt                                   cstackBANK5  0005AE
vfprintf@fp                                    cstackBANK5  0005AC
write_debug_settings@v                         cstackCOMRAM 00050C
write_to_sram_low_addr@addr                    cstackBANK6  00062F
write_to_sram_low_addr@addr_gap_mask           cstackBANK6  00062B
write_to_sram_low_addr@bank                    cstackBANK6  000629
write_to_sram_low_addr@buf                     cstackBANK6  000625
write_to_sram_low_addr@dest                    cstackBANK6  000621
write_to_sram_low_addr@len                     cstackBANK6  000627
write_to_sram_low_addr@n                       cstackBANK6  000631
write_to_sram_low_addr@saved_io_status         cstackBANK6  00062D
xtoa@c                                         cstackCOMRAM 00053A
xtoa@d                                         cstackCOMRAM 000528
xtoa@d_nonzero                                 cstackCOMRAM 000535
xtoa@fp                                        cstackCOMRAM 000526
xtoa@i                                         cstackCOMRAM 000538
xtoa@p                                         cstackCOMRAM 000533
xtoa@w                                         cstackCOMRAM 000536
xtoa@x                                         cstackCOMRAM 00052C


MODULE INFORMATION

Module		Function		Class		Link	Load	Size
C:\Program Files\Microchip\xc8\v2.41\pic\sources\c99\common\__fpclassifyf.c
		___fpclassifyf 		CODE           	232C	0000	254

C:\Program Files\Microchip\xc8\v2.41\pic\sources\c99\common\__fpclassifyf.c estimated size: 254

C:\Program Files\Microchip\xc8\v2.41\pic\sources\c99\common\toupper.c
		_toupper       		CODE           	557A	0000	56

C:\Program Files\Microchip\xc8\v2.41\pic\sources\c99\common\toupper.c estimated size: 56

../src/boards/../../drivers/pic18f47q43_spi.c
		_SPI_SD_send   		CODE           	3D54	0000	148
		_SPI_SD_begin  		CODE           	5656	0000	50
		_SPI_SD_select 		CODE           	5A14	0000	24
		_SPI_SD_configure		CODE           	1508	0000	312
		_SPI_SD_receive_byte		CODE           	58AA	0000	34
		_SPI_SD_receive		CODE           	1AE92	0000	808
		_SPI_SD_end_transaction		CODE           	58EE	0000	34
		_SPI_SD_dummy_clocks		CODE           	4D78	0000	94
		_release_bus   		CODE           	53D2	0000	66
		_SPI_SD_begin_transaction		CODE           	58CC	0000	34
		_acquire_bus   		CODE           	4E30	0000	84

../src/boards/../../drivers/pic18f47q43_spi.c estimated size: 1688

C:\Program Files\Microchip\xc8\v2.41\pic\sources\c99\common\floorf.c
		_floorf        		CODE           	1D076	0000	530

C:\Program Files\Microchip\xc8\v2.41\pic\sources\c99\common\floorf.c estimated size: 530

C:\Program Files\Microchip\xc8\v2.41\pic\sources\c99\common\isalpha.c
		_isalpha       		CODE           	55B2	0000	56

C:\Program Files\Microchip\xc8\v2.41\pic\sources\c99\common\isalpha.c estimated size: 56

C:\Program Files\Microchip\xc8\v2.41\pic\sources\c99\common\flge.c
		___flge        		CODE           	1F24	0000	260

C:\Program Files\Microchip\xc8\v2.41\pic\sources\c99\common\flge.c estimated size: 260

../src/boards/MEZ180_sd.c
		_emuz80_47q_name		CODE           	5B2E	0000	10
		_emuz80_47q_sys_init		CODE           	2526	0000	250
		_emuz80_47q_io_event		CODE           	59FC	0000	24
		_emuz80_47q_set_wait_pin		CODE           	5980	0000	26
		_emuz80_47q_clear_io_event		CODE           	5B6A	0000	4
		_emuz80_47q_bus_master		CODE           	4F28	0000	82
		_emuz80_47q_setup_addrbus		CODE           	56EC	0000	46
		_board_init    		CODE           	3EFA	0000	134
		_emuz80_47q_wait_io_event		CODE           	5864	0000	36
		_emuz80_47q_set_bank_pins		CODE           	1FFFE	0000	2
		_emuz80_47q_start_z80		CODE           	33DA	0000	194

../src/boards/MEZ180_sd.c estimated size: 808

C:\Program Files\Microchip\xc8\v2.41\pic\sources\c99\common\llmod.c
		___llmod       		CODE           	3E72	0000	136

C:\Program Files\Microchip\xc8\v2.41\pic\sources\c99\common\llmod.c estimated size: 136

C:\Program Files\Microchip\xc8\v2.41\pic\sources\c99\common\almod.c
		___almod       		CODE           	28FC	0000	236

C:\Program Files\Microchip\xc8\v2.41\pic\sources\c99\common\almod.c estimated size: 236

C:\Program Files\Microchip\xc8\v2.41\pic\sources\c99\common\Umul32.c
		___lmul        		CODE           	4922	0000	106

C:\Program Files\Microchip\xc8\v2.41\pic\sources\c99\common\Umul32.c estimated size: 106

../drivers/diskio.c
		_fatdisk_debug 		CODE           	594C	0000	26
		_get_fattime   		CODE           	5AA8	0000	18
		_disk_initialize		CODE           	1B4A6	0000	712
		_disk_write    		CODE           	1F9D0	0000	402
		_disk_status   		CODE           	418E	0000	130
		_disk_ioctl    		CODE           	3618	0000	186
		_disk_read     		CODE           	1FB62	0000	402

../drivers/diskio.c estimated size: 1876

C:\Program Files\Microchip\xc8\v2.41\pic\sources\c99\common\assert.c
		___assert_fail 		CODE           	5622	0000	52

C:\Program Files\Microchip\xc8\v2.41\pic\sources\c99\common\assert.c estimated size: 52

C:\Program Files\Microchip\xc8\v2.41\pic\sources\c99\common\fltol.c
		___fltol       		CODE           	1E1E	0000	262

C:\Program Files\Microchip\xc8\v2.41\pic\sources\c99\common\fltol.c estimated size: 262

C:\Program Files\Microchip\xc8\v2.41\pic\sources\c99\common\strtoul.c
		_strtoul       		CODE           	5688	0000	50

C:\Program Files\Microchip\xc8\v2.41\pic\sources\c99\common\strtoul.c estimated size: 50

../src/boards/../../drivers/SDCard.c
		_SDCard_crc    		CODE           	4088	0000	132
		___SDCard_crc16		CODE           	3316	0000	196
		_SDCard_init   		CODE           	17D78	0000	1212
		_SDCard_debug  		CODE           	5966	0000	26
		_SDCard_read512		CODE           	1A03A	0000	926
		_SDCard_command		CODE           	448C	0000	124
		_SDCard_write512		CODE           	18F9A	0000	1100
		_SDCard_end_transaction		CODE           	579E	0000	42
		___SDCard_wait_response		CODE           	52C0	0000	70
		___SDCard_command_r1		CODE           	3842	0000	182

../src/boards/../../drivers/SDCard.c estimated size: 4010

C:\Program Files\Microchip\xc8\v2.41\pic\sources\c99\common\xxtofl.c
		___xxtofl      		CODE           	1E17A	0000	436

C:\Program Files\Microchip\xc8\v2.41\pic\sources\c99\common\xxtofl.c estimated size: 436

C:\Program Files\Microchip\xc8\v2.41\pic\sources\c99\common\__lldiv.c
		___lldiv       		CODE           	3A4C	0000	164

C:\Program Files\Microchip\xc8\v2.41\pic\sources\c99\common\__lldiv.c estimated size: 164

../src/disas.c
		_disas_op      		CODE           	1B76E	0000	656
		_disas_ops     		CODE           	1E826	0000	420

../src/disas.c estimated size: 1076

C:\Program Files\Microchip\xc8\v2.41\pic\sources\c99\common\__strtoxl.c
		___strtoxl     		CODE           	18234	0000	1172

C:\Program Files\Microchip\xc8\v2.41\pic\sources\c99\common\__strtoxl.c estimated size: 1172

../src/io.c
		_getch_buffered		CODE           	3DE8	0000	138
		_io_invoke_target_cpu_prepare		CODE           	0106	0000	396
		_putch         		CODE           	599A	0000	26
		_cpm_trsect_from_lba		CODE           	1E9CA	0000	414
		___con_flush_buffer		CODE           	4B88	0000	100
		_ungetch       		CODE           	4ABE	0000	102
		_try_to_invoke_monitor		CODE           	242A	0000	252
		_io_set_interrupt_data		CODE           	5B0C	0000	12
		_io_init       		CODE           	5AF4	0000	12
		_putch_buffered		CODE           	4B24	0000	100
		_io_wait_write 		CODE           	16982	0000	1324
		_io_invoke_target_cpu_teardown		CODE           	2028	0000	258
		_io_stat       		CODE           	5B24	0000	10
		_con_flush_buffer		CODE           	56BA	0000	50
		_io_invoke_target_cpu		CODE           	1DA60	0000	466
		_Default_ISR   		CODE           	4FCC	0000	82
		_cpm_trsect_to_lba		CODE           	1AE0	0000	284
		_hw_ctrl_read  		CODE           	5B5C	0000	6
		_io_handle     		CODE           	10000	0000	4900
		_hw_ctrl_write 		CODE           	3CC0	0000	148
		_cpm_disk_read 		CODE           	1DFBE	0000	444

../src/io.c estimated size: 9524

C:\Program Files\Microchip\xc8\v2.41\pic\sources\c99\common\strlen.c
		_strlen        		CODE           	50BE	0000	80

C:\Program Files\Microchip\xc8\v2.41\pic\sources\c99\common\strlen.c estimated size: 80

C:\Program Files\Microchip\xc8\v2.41\pic\sources\c99\common\nf_fputc.c
		_fputc         		CODE           	324C	0000	202

C:\Program Files\Microchip\xc8\v2.41\pic\sources\c99\common\nf_fputc.c estimated size: 202

../src/memory.c
		_dma_write_to_sram		CODE           	1F03E	0000	410
		___write_to_sram		CODE           	4290	0000	128
		___memcpy_on_target		CODE           	1640	0000	308
		_mmu_bank_config		CODE           	54D0	0000	58
		_mmu_bank_select		CODE           	1BFC	0000	278
		___read_from_sram		CODE           	4310	0000	128
		_mem_init      		CODE           	1D288	0000	520
		_read_from_sram_low_addr		CODE           	1F83A	0000	406
		_dma_read_from_sram		CODE           	1F1D8	0000	410
		___write_sram_regions		CODE           	09F0	0000	370
		___read_sram_regions		CODE           	0B62	0000	370
		_write_to_sram_low_addr		CODE           	1F6A4	0000	406

../src/memory.c estimated size: 3792

C:\Program Files\Microchip\xc8\v2.41\pic\sources\c99\common\strcmp.c
		_strcmp        		CODE           	45FE	0000	120

C:\Program Files\Microchip\xc8\v2.41\pic\sources\c99\common\strcmp.c estimated size: 120

C:\Program Files\Microchip\xc8\v2.41\pic\sources\c99\common\strchr.c
		_strchr        		CODE           	4DD6	0000	90

C:\Program Files\Microchip\xc8\v2.41\pic\sources\c99\common\strchr.c estimated size: 90

C:\Program Files\Microchip\xc8\v2.41\pic\sources\c99\common\strcpy.c
		_strcpy        		CODE           	534A	0000	68

C:\Program Files\Microchip\xc8\v2.41\pic\sources\c99\common\strcpy.c estimated size: 68

C:\Program Files\Microchip\xc8\v2.41\pic\sources\c99\common\memset.c
		_memset        		CODE           	0706	0000	374

C:\Program Files\Microchip\xc8\v2.41\pic\sources\c99\common\memset.c estimated size: 374

C:\Program Files\Microchip\xc8\v2.41\pic\sources\c99\common\nf_sprintf.c
		_sprintf       		CODE           	501E	0000	80

C:\Program Files\Microchip\xc8\v2.41\pic\sources\c99\common\nf_sprintf.c estimated size: 80

C:\Program Files\Microchip\xc8\v2.41\pic\sources\c99\common\isdigit.c
		_isdigit       		CODE           	571A	0000	44

C:\Program Files\Microchip\xc8\v2.41\pic\sources\c99\common\isdigit.c estimated size: 44

C:\Program Files\Microchip\xc8\v2.41\pic\sources\c99\common\sprcadd.c
		___flsub       		CODE           	527A	0000	70
		___fladd       		CODE           	178B8	0000	1216

C:\Program Files\Microchip\xc8\v2.41\pic\sources\c99\common\sprcadd.c estimated size: 1286

C:\Program Files\Microchip\xc8\v2.41\pic\sources\c99\common\aldiv.c
		___aldiv       		CODE           	1D12	0000	268

C:\Program Files\Microchip\xc8\v2.41\pic\sources\c99\common\aldiv.c estimated size: 268

C:\Program Files\Microchip\xc8\v2.41\pic\sources\c99\common\abs.c
		_abs           		CODE           	5414	0000	64

C:\Program Files\Microchip\xc8\v2.41\pic\sources\c99\common\abs.c estimated size: 64

C:\Program Files\Microchip\xc8\v2.41\pic\sources\c99\common\doprnt.c
		_read_prec_or_width		CODE           	2F1A	0000	206
		_vfpfcnvrt     		CODE           	11324	0000	3608
		_efgtoa        		CODE           	1213C	0000	2762
		_pad           		CODE           	349C	0000	194
		_ctoa          		CODE           	2D78	0000	212
		_dtoa          		CODE           	1C800	0000	562
		_vfprintf      		CODE           	47D8	0000	112
		_otoa          		CODE           	1F50C	0000	408
		_stoa          		CODE           	1F372	0000	410
		_utoa          		CODE           	110E	0000	348
		_xtoa          		CODE           	1B9FE	0000	630

C:\Program Files\Microchip\xc8\v2.41\pic\sources\c99\common\doprnt.c estimated size: 9452

../fatfs/ff.c
		_clst2sect     		CODE           	30B4	0000	204
		_find_volume   		CODE           	1D688	0000	500
		_dir_clear     		CODE           	126A	0000	336
		_ld_dword      		CODE           	378A	0000	184
		_remove_chain  		CODE           	1C5CE	0000	562
		_f_mount       		CODE           	2620	0000	250
		_get_fat       		CODE           	19C3A	0000	1024
		_st_word       		CODE           	57C8	0000	40
		_get_ldnumber  		CODE           	1EB68	0000	414
		_st_clust      		CODE           	515A	0000	76
		_create_name   		CODE           	1A772	0000	918
		_create_chain  		CODE           	163D2	0000	1456
		_dbc_1st       		CODE           	3B8E	0000	156
		_f_lseek       		CODE           	13F46	0000	2050
		_validate      		CODE           	212A	0000	258
		_check_fs      		CODE           	1B1BA	0000	748
		_f_sync        		CODE           	1CC4E	0000	534
		_get_fileinfo  		CODE           	1D490	0000	504
		_dir_read      		CODE           	1E4DE	0000	420
		_st_dword      		CODE           	48B6	0000	108
		_f_write       		CODE           	136CA	0000	2172
		_dir_alloc     		CODE           	13BA	0000	334
		_f_opendir     		CODE           	1FE80	0000	382
		_put_fat       		CODE           	173B8	0000	1280
		_f_readdir     		CODE           	2AD0	0000	230
		_sync_fs       		CODE           	1CE64	0000	530
		_dir_next      		CODE           	193E6	0000	1066
		_sync_window   		CODE           	1ED06	0000	414
		_dir_register  		CODE           	2BB6	0000	226
		_ld_word       		CODE           	5542	0000	56
		_dir_find      		CODE           	0292	0000	388
		_f_open        		CODE           	14748	0000	2024
		_f_read        		CODE           	156AA	0000	1812
		_dir_sdi       		CODE           	1AB08	0000	906
		_follow_path   		CODE           	1CA32	0000	540
		_f_closedir    		CODE           	550A	0000	56
		_dbc_2nd       		CODE           	2C98	0000	224
		_ld_clust      		CODE           	4210	0000	128
		_move_window   		CODE           	3180	0000	204
		_mount_volume  		CODE           	12C06	0000	2756

../fatfs/ff.c estimated size: 26470

../drivers/utils.c
		_util_addrdump 		CODE           	087C	0000	372
		_util_hexdump  		CODE           	0FAA	0000	356
		_util_stricmp  		CODE           	440E	0000	126
		_util_hexdump_sum		CODE           	3F80	0000	132

../drivers/utils.c estimated size: 986

../src/supermez80.c
		_sys_init      		CODE           	5888	0000	34
		_main          		CODE           	1FCF4	0000	396
		_start_z80     		CODE           	5910	0000	30
		_menu_select   		CODE           	16EAE	0000	1290
		_disk_init     		CODE           	4F7A	0000	82
		_bus_master    		CODE           	5818	0000	38

../src/supermez80.c estimated size: 1870

C:\Program Files\Microchip\xc8\v2.41\pic\sources\c99\common\flneg.c
		___flneg       		CODE           	55EA	0000	56

C:\Program Files\Microchip\xc8\v2.41\pic\sources\c99\common\flneg.c estimated size: 56

C:\Program Files\Microchip\xc8\v2.41\pic\sources\c99\common\abort.c
		_abort         		CODE           	5B18	0000	12

C:\Program Files\Microchip\xc8\v2.41\pic\sources\c99\common\abort.c estimated size: 12

C:\Program Files\Microchip\xc8\v2.41\pic\sources\c99\common\atexit.c
		___funcs_on_exit		CODE           	592E	0000	30

C:\Program Files\Microchip\xc8\v2.41\pic\sources\c99\common\atexit.c estimated size: 30

C:\Program Files\Microchip\xc8\v2.41\pic\sources\c99\common\isalnum.c
		_isalnum       		CODE           	4D18	0000	96

C:\Program Files\Microchip\xc8\v2.41\pic\sources\c99\common\isalnum.c estimated size: 96

C:\Program Files\Microchip\xc8\v2.41\pic\sources\c99\common\fleq.c
		___fleq        		CODE           	39A2	0000	170

C:\Program Files\Microchip\xc8\v2.41\pic\sources\c99\common\fleq.c estimated size: 170

shared
		_trampoline    		MEDIUMCONST    	E314	0000	183
		_disas_z80     		MEDIUMCONST    	DD67	0000	1028
		_trampoline_cleanup_work		MEDIUMCONST    	0000	0000	0
		_num_drives    		MEDIUMCONST    	0000	0000	0
		_trampoline_nmi		MEDIUMCONST    	E47F	0000	64
		_rom           		MEDIUMCONST    	E16B	0000	425
		_DbcTbl        		MEDIUMCONST    	DD55	0000	10
		i2___con_flush_buffer		CODE           	4C50	0000	100
		i2___lwmod     		CODE           	4CB4	0000	100
		_trampoline_nmi_work		MEDIUMCONST    	0000	0000	0
		__initialization		CODE           	2FE8	0000	198
		mon_cmd_set@variables		MEDIUMCONST    	DD0F	0000	70
		_trampoline_work		MEDIUMCONST    	0000	0000	0
		_mon_cmds      		MEDIUMCONST    	E3CB	0000	180
		_trampoline_cleanup		MEDIUMCONST    	E4BF	0000	63
		io_invoke_target_cpu_prepare@dummy_rom		MEDIUMCONST    	E51A	0000	10
		mon_cleanup@reti		MEDIUMCONST    	E527	0000	3
		_dma_helper_z80		MEDIUMCONST    	E4FE	0000	28
		mon_cleanup@retn		MEDIUMCONST    	E524	0000	3

shared estimated size: 2465

../src/monitor.c
		_mon_prepare_nmi		CODE           	5AD8	0000	14
		_mon_get_hexval		CODE           	0416	0000	378
		_uninstall_trampoline		CODE           	49F2	0000	102
		_mon_cmd_sdread		CODE           	1DE00	0000	446
		_install_trampoline		CODE           	4508	0000	124
		_mon_remove_trailing_space		CODE           	4ED6	0000	82
		_mon_cmd_status		CODE           	1BC74	0000	616
		_write_debug_settings		CODE           	271A	0000	246
		_mon_chartoval 		CODE           	1DC32	0000	462
		_save_zero_page		CODE           	4766	0000	114
		_mon_cleanup   		CODE           	29E8	0000	232
		_bank_select_callback		CODE           	410C	0000	130
		_mon_show_registers		CODE           	1BEDC	0000	610
		_uninstall_nmi_vector		CODE           	498C	0000	102
		_mon_cmd_clearbreakpoint		CODE           	4584	0000	122
		_mon_prompt    		CODE           	0E40	0000	362
		_install_nmi_vector		CODE           	38F8	0000	170
		_install_rst_vector		CODE           	5234	0000	70
		_mon_prepare   		CODE           	5AE6	0000	14
		_edit_line     		CODE           	18B38	0000	1122
		_install_trampoline_nmi		CODE           	4004	0000	132
		_mon_enter     		CODE           	4848	0000	110
		_mon_leave     		CODE           	510E	0000	76
		_mon_parse     		CODE           	15DBE	0000	1556
		_mon_assert_interrupt		CODE           	59B4	0000	24
		_mon_init      		CODE           	5ABA	0000	16
		_mon_cmd_breakpoint		CODE           	0590	0000	374
		_mon_enter_nmi 		CODE           	46EE	0000	120
		_mon_strtoval  		CODE           	1D87C	0000	484
		_mon_cmd_disassemble		CODE           	1C13E	0000	590
		_install_trampoline_cleanup		CODE           	19C0	0000	288
		_mon_use_zeropage		CODE           	5492	0000	62
		_mon_get_str   		CODE           	18A0	0000	288
		_mon_setup     		CODE           	5B50	0000	6
		_reinstall_trampoline		CODE           	3AF0	0000	158
		_mon_cmd_set   		CODE           	14F30	0000	1914
		_mon_cmd_help  		CODE           	1E682	0000	420
		_mon_cmd_step  		CODE           	4676	0000	120
		_mon_cmd_dump  		CODE           	1C38C	0000	578
		_mon_cmd_jump  		CODE           	3C2A	0000	150
		_mon_cmd_diskread		CODE           	186C8	0000	1136
		_mon_start     		CODE           	1EEA4	0000	410
		_mon_remove_space		CODE           	5454	0000	62
		_read_debug_settings		CODE           	222C	0000	256
		_mon_cmd_write 		CODE           	0CD4	0000	364
		_mon_cmd_reset 		CODE           	5ACA	0000	14
		_mon_cmd_continue		CODE           	5B00	0000	12

../src/monitor.c estimated size: 15238

C:\Program Files\Microchip\xc8\v2.41\pic\sources\c99\common\memcmp.c
		_memcmp        		CODE           	2E4C	0000	206

C:\Program Files\Microchip\xc8\v2.41\pic\sources\c99\common\memcmp.c estimated size: 206

C:\Program Files\Microchip\xc8\v2.41\pic\sources\c99\common\memcpy.c
		_memcpy        		CODE           	506E	0000	80

C:\Program Files\Microchip\xc8\v2.41\pic\sources\c99\common\memcpy.c estimated size: 80

C:\Program Files\Microchip\xc8\v2.41\pic\sources\c99\common\isupper.c
		_isupper       		CODE           	5772	0000	44

C:\Program Files\Microchip\xc8\v2.41\pic\sources\c99\common\isupper.c estimated size: 44

../src/boards/emuz80_common.c
		_emuz80_common_rd_pin		CODE           	59CC	0000	24
		_emuz80_common_wait_for_programmer		CODE           	4E84	0000	82
		_emuz80_common_ioreq_pin		CODE           	59E4	0000	24
		_emuz80_common_set_data_dir		CODE           	5B48	0000	8
		_emuz80_common_set_data_pins		CODE           	5B40	0000	8
		_emuz80_common_init		CODE           	2810	0000	236
		_emuz80_common_write_to_sram		CODE           	36D2	0000	184
		_emuz80_common_high_addr_mask		CODE           	5A96	0000	18
		_emuz80_common_read_from_sram		CODE           	355E	0000	186
		_emuz80_common_low_addr_mask		CODE           	5B38	0000	8
		_emuz80_common_addr_l_pins		CODE           	5B66	0000	4
		_emuz80_common_start_z80		CODE           	5306	0000	68
		_emuz80_common_data_pins		CODE           	5B62	0000	4
		_emuz80_common_set_wait_pin		CODE           	5A58	0000	22
		_emuz80_common_clock_op_hook		CODE           	1E32E	0000	432
		_emuz80_common_set_reset_pin		CODE           	5A42	0000	22
		_emuz80_common_sys_init		CODE           	4390	0000	126
		_emuz80_common_set_busrq_pin		CODE           	5A6E	0000	22

../src/boards/emuz80_common.c estimated size: 1478

C:\Program Files\Microchip\xc8\v2.41\pic\sources\c99\common\Umul16.c
		___wmul        		CODE           	583E	0000	38

C:\Program Files\Microchip\xc8\v2.41\pic\sources\c99\common\Umul16.c estimated size: 38

C:\Program Files\Microchip\xc8\v2.41\pic\sources\c99\common\_Exit.c
		__Exit         		CODE           	5B56	0000	6

C:\Program Files\Microchip\xc8\v2.41\pic\sources\c99\common\_Exit.c estimated size: 6

C:\Program Files\Microchip\xc8\v2.41\pic\sources\c99\common\nf_fputs.c
		_fputs         		CODE           	538E	0000	68

C:\Program Files\Microchip\xc8\v2.41\pic\sources\c99\common\nf_fputs.c estimated size: 68

C:\Program Files\Microchip\xc8\v2.41\pic\sources\c99\common\isspace.c
		_isspace       		CODE           	51EE	0000	70

C:\Program Files\Microchip\xc8\v2.41\pic\sources\c99\common\isspace.c estimated size: 70

C:\Program Files\Microchip\xc8\v2.41\pic\sources\c99\common\exit.c
		_exit          		CODE           	5A84	0000	18

C:\Program Files\Microchip\xc8\v2.41\pic\sources\c99\common\exit.c estimated size: 18

C:\Program Files\Microchip\xc8\v2.41\pic\sources\c99\common\islower.c
		_islower       		CODE           	5746	0000	44

C:\Program Files\Microchip\xc8\v2.41\pic\sources\c99\common\islower.c estimated size: 44

C:\Program Files\Microchip\xc8\v2.41\pic\sources\c99\common\labs.c
		_labs          		CODE           	4A58	0000	102

C:\Program Files\Microchip\xc8\v2.41\pic\sources\c99\common\labs.c estimated size: 102

C:\Program Files\Microchip\xc8\v2.41\pic\sources\c99\common\strncmp.c
		_strncmp       		CODE           	1774	0000	300

C:\Program Files\Microchip\xc8\v2.41\pic\sources\c99\common\strncmp.c estimated size: 300

C:\Program Files\Microchip\xc8\v2.41\pic\sources\c99\common\sprcmul.c
		___flmul       		CODE           	19810	0000	1066

C:\Program Files\Microchip\xc8\v2.41\pic\sources\c99\common\sprcmul.c estimated size: 1066

C:\Program Files\Microchip\xc8\v2.41\pic\sources\c99\common\printf.c
		_printf        		CODE           	57F0	0000	40

C:\Program Files\Microchip\xc8\v2.41\pic\sources\c99\common\printf.c estimated size: 40

C:\Program Files\Microchip\xc8\v2.41\pic\sources\c99\common\sprcdiv.c
		___fldiv       		CODE           	1A3D8	0000	922

C:\Program Files\Microchip\xc8\v2.41\pic\sources\c99\common\sprcdiv.c estimated size: 922

C:\Program Files\Microchip\xc8\v2.41\pic\sources\c99\common\lwmod.c
		___lwmod       		CODE           	4BEC	0000	100

C:\Program Files\Microchip\xc8\v2.41\pic\sources\c99\common\lwmod.c estimated size: 100

